Archive member included because of file (symbol)

c:/altera/12.1/nios2eds/bin/gnu/h-i686-mingw32/bin/../lib/gcc/nios2-elf/4.1.2/mno-hw-mul\libgcc.a(lib2-divmod.o)
                              obj/default/avalon_isp_algo_2a.o (__udivsi3)
c:/altera/12.1/nios2eds/bin/gnu/h-i686-mingw32/bin/../lib/gcc/nios2-elf/4.1.2/mno-hw-mul\libgcc.a(lib2-mul.o)
                              obj/default/avalon_isp_algo_2a.o (__mulsi3)
c:/altera/12.1/nios2eds/bin/gnu/h-i686-mingw32/bin/../lib/gcc/nios2-elf/4.1.2/../../../../nios2-elf/lib/mno-hw-mul\libc.a(lib_a-printf.o)
                              obj/default/hello_world.o (printf)
c:/altera/12.1/nios2eds/bin/gnu/h-i686-mingw32/bin/../lib/gcc/nios2-elf/4.1.2/../../../../nios2-elf/lib/mno-hw-mul\libc.a(lib_a-puts.o)
                              obj/default/hello_world.o (puts)
c:/altera/12.1/nios2eds/bin/gnu/h-i686-mingw32/bin/../lib/gcc/nios2-elf/4.1.2/../../../../nios2-elf/lib/mno-hw-mul\libc.a(lib_a-strlen.o)
                              c:/altera/12.1/nios2eds/bin/gnu/h-i686-mingw32/bin/../lib/gcc/nios2-elf/4.1.2/../../../../nios2-elf/lib/mno-hw-mul\libc.a(lib_a-puts.o) (strlen)
c:/altera/12.1/nios2eds/bin/gnu/h-i686-mingw32/bin/../lib/gcc/nios2-elf/4.1.2/../../../../nios2-elf/lib/mno-hw-mul\libc.a(lib_a-vfprintf.o)
                              c:/altera/12.1/nios2eds/bin/gnu/h-i686-mingw32/bin/../lib/gcc/nios2-elf/4.1.2/../../../../nios2-elf/lib/mno-hw-mul\libc.a(lib_a-printf.o) (___vfprintf_internal_r)
c:/altera/12.1/nios2eds/bin/gnu/h-i686-mingw32/bin/../lib/gcc/nios2-elf/4.1.2/../../../../nios2-elf/lib/mno-hw-mul\libc.a(lib_a-wsetup.o)
                              c:/altera/12.1/nios2eds/bin/gnu/h-i686-mingw32/bin/../lib/gcc/nios2-elf/4.1.2/../../../../nios2-elf/lib/mno-hw-mul\libc.a(lib_a-vfprintf.o) (__swsetup_r)
c:/altera/12.1/nios2eds/bin/gnu/h-i686-mingw32/bin/../lib/gcc/nios2-elf/4.1.2/../../../../nios2-elf/lib/mno-hw-mul\libc.a(lib_a-dtoa.o)
                              c:/altera/12.1/nios2eds/bin/gnu/h-i686-mingw32/bin/../lib/gcc/nios2-elf/4.1.2/../../../../nios2-elf/lib/mno-hw-mul\libc.a(lib_a-vfprintf.o) (_dtoa_r)
c:/altera/12.1/nios2eds/bin/gnu/h-i686-mingw32/bin/../lib/gcc/nios2-elf/4.1.2/../../../../nios2-elf/lib/mno-hw-mul\libc.a(lib_a-fflush.o)
                              c:/altera/12.1/nios2eds/bin/gnu/h-i686-mingw32/bin/../lib/gcc/nios2-elf/4.1.2/../../../../nios2-elf/lib/mno-hw-mul\libc.a(lib_a-vfprintf.o) (_fflush_r)
c:/altera/12.1/nios2eds/bin/gnu/h-i686-mingw32/bin/../lib/gcc/nios2-elf/4.1.2/../../../../nios2-elf/lib/mno-hw-mul\libc.a(lib_a-findfp.o)
                              c:/altera/12.1/nios2eds/bin/gnu/h-i686-mingw32/bin/../lib/gcc/nios2-elf/4.1.2/../../../../nios2-elf/lib/mno-hw-mul\libc.a(lib_a-vfprintf.o) (__sinit)
c:/altera/12.1/nios2eds/bin/gnu/h-i686-mingw32/bin/../lib/gcc/nios2-elf/4.1.2/../../../../nios2-elf/lib/mno-hw-mul\libc.a(lib_a-freer.o)
                              c:/altera/12.1/nios2eds/bin/gnu/h-i686-mingw32/bin/../lib/gcc/nios2-elf/4.1.2/../../../../nios2-elf/lib/mno-hw-mul\libc.a(lib_a-wsetup.o) (_free_r)
c:/altera/12.1/nios2eds/bin/gnu/h-i686-mingw32/bin/../lib/gcc/nios2-elf/4.1.2/../../../../nios2-elf/lib/mno-hw-mul\libc.a(lib_a-fvwrite.o)
                              c:/altera/12.1/nios2eds/bin/gnu/h-i686-mingw32/bin/../lib/gcc/nios2-elf/4.1.2/../../../../nios2-elf/lib/mno-hw-mul\libc.a(lib_a-puts.o) (__sfvwrite_r)
c:/altera/12.1/nios2eds/bin/gnu/h-i686-mingw32/bin/../lib/gcc/nios2-elf/4.1.2/../../../../nios2-elf/lib/mno-hw-mul\libc.a(lib_a-fwalk.o)
                              c:/altera/12.1/nios2eds/bin/gnu/h-i686-mingw32/bin/../lib/gcc/nios2-elf/4.1.2/../../../../nios2-elf/lib/mno-hw-mul\libc.a(lib_a-fflush.o) (_fwalk_reent)
c:/altera/12.1/nios2eds/bin/gnu/h-i686-mingw32/bin/../lib/gcc/nios2-elf/4.1.2/../../../../nios2-elf/lib/mno-hw-mul\libc.a(lib_a-impure.o)
                              c:/altera/12.1/nios2eds/bin/gnu/h-i686-mingw32/bin/../lib/gcc/nios2-elf/4.1.2/../../../../nios2-elf/lib/mno-hw-mul\libc.a(lib_a-printf.o) (_impure_ptr)
c:/altera/12.1/nios2eds/bin/gnu/h-i686-mingw32/bin/../lib/gcc/nios2-elf/4.1.2/../../../../nios2-elf/lib/mno-hw-mul\libc.a(lib_a-locale.o)
                              c:/altera/12.1/nios2eds/bin/gnu/h-i686-mingw32/bin/../lib/gcc/nios2-elf/4.1.2/../../../../nios2-elf/lib/mno-hw-mul\libc.a(lib_a-vfprintf.o) (_localeconv_r)
c:/altera/12.1/nios2eds/bin/gnu/h-i686-mingw32/bin/../lib/gcc/nios2-elf/4.1.2/../../../../nios2-elf/lib/mno-hw-mul\libc.a(lib_a-makebuf.o)
                              c:/altera/12.1/nios2eds/bin/gnu/h-i686-mingw32/bin/../lib/gcc/nios2-elf/4.1.2/../../../../nios2-elf/lib/mno-hw-mul\libc.a(lib_a-wsetup.o) (__smakebuf_r)
c:/altera/12.1/nios2eds/bin/gnu/h-i686-mingw32/bin/../lib/gcc/nios2-elf/4.1.2/../../../../nios2-elf/lib/mno-hw-mul\libc.a(lib_a-mallocr.o)
                              c:/altera/12.1/nios2eds/bin/gnu/h-i686-mingw32/bin/../lib/gcc/nios2-elf/4.1.2/../../../../nios2-elf/lib/mno-hw-mul\libc.a(lib_a-findfp.o) (_malloc_r)
c:/altera/12.1/nios2eds/bin/gnu/h-i686-mingw32/bin/../lib/gcc/nios2-elf/4.1.2/../../../../nios2-elf/lib/mno-hw-mul\libc.a(lib_a-memchr.o)
                              c:/altera/12.1/nios2eds/bin/gnu/h-i686-mingw32/bin/../lib/gcc/nios2-elf/4.1.2/../../../../nios2-elf/lib/mno-hw-mul\libc.a(lib_a-vfprintf.o) (memchr)
c:/altera/12.1/nios2eds/bin/gnu/h-i686-mingw32/bin/../lib/gcc/nios2-elf/4.1.2/../../../../nios2-elf/lib/mno-hw-mul\libc.a(lib_a-memcpy.o)
                              c:/altera/12.1/nios2eds/bin/gnu/h-i686-mingw32/bin/../lib/gcc/nios2-elf/4.1.2/../../../../nios2-elf/lib/mno-hw-mul\libc.a(lib_a-dtoa.o) (memcpy)
c:/altera/12.1/nios2eds/bin/gnu/h-i686-mingw32/bin/../lib/gcc/nios2-elf/4.1.2/../../../../nios2-elf/lib/mno-hw-mul\libc.a(lib_a-memmove.o)
                              c:/altera/12.1/nios2eds/bin/gnu/h-i686-mingw32/bin/../lib/gcc/nios2-elf/4.1.2/../../../../nios2-elf/lib/mno-hw-mul\libc.a(lib_a-fvwrite.o) (memmove)
c:/altera/12.1/nios2eds/bin/gnu/h-i686-mingw32/bin/../lib/gcc/nios2-elf/4.1.2/../../../../nios2-elf/lib/mno-hw-mul\libc.a(lib_a-memset.o)
                              c:/altera/12.1/nios2eds/bin/gnu/h-i686-mingw32/bin/../lib/gcc/nios2-elf/4.1.2/../../../../nios2-elf/lib/mno-hw-mul\libc.a(lib_a-findfp.o) (memset)
c:/altera/12.1/nios2eds/bin/gnu/h-i686-mingw32/bin/../lib/gcc/nios2-elf/4.1.2/../../../../nios2-elf/lib/mno-hw-mul\libc.a(lib_a-mprec.o)
                              c:/altera/12.1/nios2eds/bin/gnu/h-i686-mingw32/bin/../lib/gcc/nios2-elf/4.1.2/../../../../nios2-elf/lib/mno-hw-mul\libc.a(lib_a-dtoa.o) (_Bfree)
c:/altera/12.1/nios2eds/bin/gnu/h-i686-mingw32/bin/../lib/gcc/nios2-elf/4.1.2/../../../../nios2-elf/lib/mno-hw-mul\libc.a(lib_a-reallocr.o)
                              c:/altera/12.1/nios2eds/bin/gnu/h-i686-mingw32/bin/../lib/gcc/nios2-elf/4.1.2/../../../../nios2-elf/lib/mno-hw-mul\libc.a(lib_a-fvwrite.o) (_realloc_r)
c:/altera/12.1/nios2eds/bin/gnu/h-i686-mingw32/bin/../lib/gcc/nios2-elf/4.1.2/../../../../nios2-elf/lib/mno-hw-mul\libc.a(lib_a-s_isinfd.o)
                              c:/altera/12.1/nios2eds/bin/gnu/h-i686-mingw32/bin/../lib/gcc/nios2-elf/4.1.2/../../../../nios2-elf/lib/mno-hw-mul\libc.a(lib_a-vfprintf.o) (__isinfd)
c:/altera/12.1/nios2eds/bin/gnu/h-i686-mingw32/bin/../lib/gcc/nios2-elf/4.1.2/../../../../nios2-elf/lib/mno-hw-mul\libc.a(lib_a-s_isnand.o)
                              c:/altera/12.1/nios2eds/bin/gnu/h-i686-mingw32/bin/../lib/gcc/nios2-elf/4.1.2/../../../../nios2-elf/lib/mno-hw-mul\libc.a(lib_a-vfprintf.o) (__isnand)
c:/altera/12.1/nios2eds/bin/gnu/h-i686-mingw32/bin/../lib/gcc/nios2-elf/4.1.2/../../../../nios2-elf/lib/mno-hw-mul\libc.a(lib_a-sbrkr.o)
                              c:/altera/12.1/nios2eds/bin/gnu/h-i686-mingw32/bin/../lib/gcc/nios2-elf/4.1.2/../../../../nios2-elf/lib/mno-hw-mul\libc.a(lib_a-freer.o) (_sbrk_r)
c:/altera/12.1/nios2eds/bin/gnu/h-i686-mingw32/bin/../lib/gcc/nios2-elf/4.1.2/../../../../nios2-elf/lib/mno-hw-mul\libc.a(lib_a-stdio.o)
                              c:/altera/12.1/nios2eds/bin/gnu/h-i686-mingw32/bin/../lib/gcc/nios2-elf/4.1.2/../../../../nios2-elf/lib/mno-hw-mul\libc.a(lib_a-findfp.o) (__sclose)
c:/altera/12.1/nios2eds/bin/gnu/h-i686-mingw32/bin/../lib/gcc/nios2-elf/4.1.2/../../../../nios2-elf/lib/mno-hw-mul\libc.a(lib_a-strcmp.o)
                              c:/altera/12.1/nios2eds/bin/gnu/h-i686-mingw32/bin/../lib/gcc/nios2-elf/4.1.2/../../../../nios2-elf/lib/mno-hw-mul\libc.a(lib_a-locale.o) (strcmp)
c:/altera/12.1/nios2eds/bin/gnu/h-i686-mingw32/bin/../lib/gcc/nios2-elf/4.1.2/../../../../nios2-elf/lib/mno-hw-mul\libc.a(lib_a-writer.o)
                              c:/altera/12.1/nios2eds/bin/gnu/h-i686-mingw32/bin/../lib/gcc/nios2-elf/4.1.2/../../../../nios2-elf/lib/mno-hw-mul\libc.a(lib_a-stdio.o) (_write_r)
c:/altera/12.1/nios2eds/bin/gnu/h-i686-mingw32/bin/../lib/gcc/nios2-elf/4.1.2/../../../../nios2-elf/lib/mno-hw-mul\libc.a(lib_a-callocr.o)
                              c:/altera/12.1/nios2eds/bin/gnu/h-i686-mingw32/bin/../lib/gcc/nios2-elf/4.1.2/../../../../nios2-elf/lib/mno-hw-mul\libc.a(lib_a-mprec.o) (_calloc_r)
c:/altera/12.1/nios2eds/bin/gnu/h-i686-mingw32/bin/../lib/gcc/nios2-elf/4.1.2/../../../../nios2-elf/lib/mno-hw-mul\libc.a(lib_a-closer.o)
                              c:/altera/12.1/nios2eds/bin/gnu/h-i686-mingw32/bin/../lib/gcc/nios2-elf/4.1.2/../../../../nios2-elf/lib/mno-hw-mul\libc.a(lib_a-stdio.o) (_close_r)
c:/altera/12.1/nios2eds/bin/gnu/h-i686-mingw32/bin/../lib/gcc/nios2-elf/4.1.2/../../../../nios2-elf/lib/mno-hw-mul\libc.a(lib_a-fclose.o)
                              c:/altera/12.1/nios2eds/bin/gnu/h-i686-mingw32/bin/../lib/gcc/nios2-elf/4.1.2/../../../../nios2-elf/lib/mno-hw-mul\libc.a(lib_a-findfp.o) (fclose)
c:/altera/12.1/nios2eds/bin/gnu/h-i686-mingw32/bin/../lib/gcc/nios2-elf/4.1.2/../../../../nios2-elf/lib/mno-hw-mul\libc.a(lib_a-fstatr.o)
                              c:/altera/12.1/nios2eds/bin/gnu/h-i686-mingw32/bin/../lib/gcc/nios2-elf/4.1.2/../../../../nios2-elf/lib/mno-hw-mul\libc.a(lib_a-makebuf.o) (_fstat_r)
c:/altera/12.1/nios2eds/bin/gnu/h-i686-mingw32/bin/../lib/gcc/nios2-elf/4.1.2/../../../../nios2-elf/lib/mno-hw-mul\libc.a(lib_a-int_errno.o)
                              c:/altera/12.1/nios2eds/bin/gnu/h-i686-mingw32/bin/../lib/gcc/nios2-elf/4.1.2/../../../../nios2-elf/lib/mno-hw-mul\libc.a(lib_a-sbrkr.o) (errno)
c:/altera/12.1/nios2eds/bin/gnu/h-i686-mingw32/bin/../lib/gcc/nios2-elf/4.1.2/../../../../nios2-elf/lib/mno-hw-mul\libc.a(lib_a-isattyr.o)
                              c:/altera/12.1/nios2eds/bin/gnu/h-i686-mingw32/bin/../lib/gcc/nios2-elf/4.1.2/../../../../nios2-elf/lib/mno-hw-mul\libc.a(lib_a-makebuf.o) (_isatty_r)
c:/altera/12.1/nios2eds/bin/gnu/h-i686-mingw32/bin/../lib/gcc/nios2-elf/4.1.2/../../../../nios2-elf/lib/mno-hw-mul\libc.a(lib_a-lseekr.o)
                              c:/altera/12.1/nios2eds/bin/gnu/h-i686-mingw32/bin/../lib/gcc/nios2-elf/4.1.2/../../../../nios2-elf/lib/mno-hw-mul\libc.a(lib_a-stdio.o) (_lseek_r)
c:/altera/12.1/nios2eds/bin/gnu/h-i686-mingw32/bin/../lib/gcc/nios2-elf/4.1.2/../../../../nios2-elf/lib/mno-hw-mul\libc.a(lib_a-readr.o)
                              c:/altera/12.1/nios2eds/bin/gnu/h-i686-mingw32/bin/../lib/gcc/nios2-elf/4.1.2/../../../../nios2-elf/lib/mno-hw-mul\libc.a(lib_a-stdio.o) (_read_r)
c:/altera/12.1/nios2eds/bin/gnu/h-i686-mingw32/bin/../lib/gcc/nios2-elf/4.1.2/mno-hw-mul\libgcc.a(_udivdi3.o)
                              c:/altera/12.1/nios2eds/bin/gnu/h-i686-mingw32/bin/../lib/gcc/nios2-elf/4.1.2/../../../../nios2-elf/lib/mno-hw-mul\libc.a(lib_a-vfprintf.o) (__udivdi3)
c:/altera/12.1/nios2eds/bin/gnu/h-i686-mingw32/bin/../lib/gcc/nios2-elf/4.1.2/mno-hw-mul\libgcc.a(_umoddi3.o)
                              c:/altera/12.1/nios2eds/bin/gnu/h-i686-mingw32/bin/../lib/gcc/nios2-elf/4.1.2/../../../../nios2-elf/lib/mno-hw-mul\libc.a(lib_a-vfprintf.o) (__umoddi3)
c:/altera/12.1/nios2eds/bin/gnu/h-i686-mingw32/bin/../lib/gcc/nios2-elf/4.1.2/mno-hw-mul\libgcc.a(_addsub_df.o)
                              c:/altera/12.1/nios2eds/bin/gnu/h-i686-mingw32/bin/../lib/gcc/nios2-elf/4.1.2/../../../../nios2-elf/lib/mno-hw-mul\libc.a(lib_a-dtoa.o) (__subdf3)
c:/altera/12.1/nios2eds/bin/gnu/h-i686-mingw32/bin/../lib/gcc/nios2-elf/4.1.2/mno-hw-mul\libgcc.a(_mul_df.o)
                              c:/altera/12.1/nios2eds/bin/gnu/h-i686-mingw32/bin/../lib/gcc/nios2-elf/4.1.2/../../../../nios2-elf/lib/mno-hw-mul\libc.a(lib_a-dtoa.o) (__muldf3)
c:/altera/12.1/nios2eds/bin/gnu/h-i686-mingw32/bin/../lib/gcc/nios2-elf/4.1.2/mno-hw-mul\libgcc.a(_div_df.o)
                              c:/altera/12.1/nios2eds/bin/gnu/h-i686-mingw32/bin/../lib/gcc/nios2-elf/4.1.2/../../../../nios2-elf/lib/mno-hw-mul\libc.a(lib_a-dtoa.o) (__divdf3)
c:/altera/12.1/nios2eds/bin/gnu/h-i686-mingw32/bin/../lib/gcc/nios2-elf/4.1.2/mno-hw-mul\libgcc.a(_eq_df.o)
                              c:/altera/12.1/nios2eds/bin/gnu/h-i686-mingw32/bin/../lib/gcc/nios2-elf/4.1.2/../../../../nios2-elf/lib/mno-hw-mul\libc.a(lib_a-vfprintf.o) (__eqdf2)
c:/altera/12.1/nios2eds/bin/gnu/h-i686-mingw32/bin/../lib/gcc/nios2-elf/4.1.2/mno-hw-mul\libgcc.a(_ne_df.o)
                              c:/altera/12.1/nios2eds/bin/gnu/h-i686-mingw32/bin/../lib/gcc/nios2-elf/4.1.2/../../../../nios2-elf/lib/mno-hw-mul\libc.a(lib_a-vfprintf.o) (__nedf2)
c:/altera/12.1/nios2eds/bin/gnu/h-i686-mingw32/bin/../lib/gcc/nios2-elf/4.1.2/mno-hw-mul\libgcc.a(_gt_df.o)
                              c:/altera/12.1/nios2eds/bin/gnu/h-i686-mingw32/bin/../lib/gcc/nios2-elf/4.1.2/../../../../nios2-elf/lib/mno-hw-mul\libc.a(lib_a-dtoa.o) (__gtdf2)
c:/altera/12.1/nios2eds/bin/gnu/h-i686-mingw32/bin/../lib/gcc/nios2-elf/4.1.2/mno-hw-mul\libgcc.a(_ge_df.o)
                              c:/altera/12.1/nios2eds/bin/gnu/h-i686-mingw32/bin/../lib/gcc/nios2-elf/4.1.2/../../../../nios2-elf/lib/mno-hw-mul\libc.a(lib_a-dtoa.o) (__gedf2)
c:/altera/12.1/nios2eds/bin/gnu/h-i686-mingw32/bin/../lib/gcc/nios2-elf/4.1.2/mno-hw-mul\libgcc.a(_lt_df.o)
                              c:/altera/12.1/nios2eds/bin/gnu/h-i686-mingw32/bin/../lib/gcc/nios2-elf/4.1.2/../../../../nios2-elf/lib/mno-hw-mul\libc.a(lib_a-vfprintf.o) (__ltdf2)
c:/altera/12.1/nios2eds/bin/gnu/h-i686-mingw32/bin/../lib/gcc/nios2-elf/4.1.2/mno-hw-mul\libgcc.a(_si_to_df.o)
                              c:/altera/12.1/nios2eds/bin/gnu/h-i686-mingw32/bin/../lib/gcc/nios2-elf/4.1.2/../../../../nios2-elf/lib/mno-hw-mul\libc.a(lib_a-dtoa.o) (__floatsidf)
c:/altera/12.1/nios2eds/bin/gnu/h-i686-mingw32/bin/../lib/gcc/nios2-elf/4.1.2/mno-hw-mul\libgcc.a(_df_to_si.o)
                              c:/altera/12.1/nios2eds/bin/gnu/h-i686-mingw32/bin/../lib/gcc/nios2-elf/4.1.2/../../../../nios2-elf/lib/mno-hw-mul\libc.a(lib_a-dtoa.o) (__fixdfsi)
c:/altera/12.1/nios2eds/bin/gnu/h-i686-mingw32/bin/../lib/gcc/nios2-elf/4.1.2/mno-hw-mul\libgcc.a(_thenan_df.o)
                              c:/altera/12.1/nios2eds/bin/gnu/h-i686-mingw32/bin/../lib/gcc/nios2-elf/4.1.2/mno-hw-mul\libgcc.a(_addsub_df.o) (__thenan_df)
c:/altera/12.1/nios2eds/bin/gnu/h-i686-mingw32/bin/../lib/gcc/nios2-elf/4.1.2/mno-hw-mul\libgcc.a(_usi_to_df.o)
                              c:/altera/12.1/nios2eds/bin/gnu/h-i686-mingw32/bin/../lib/gcc/nios2-elf/4.1.2/../../../../nios2-elf/lib/mno-hw-mul\libc.a(lib_a-dtoa.o) (__floatunsidf)
c:/altera/12.1/nios2eds/bin/gnu/h-i686-mingw32/bin/../lib/gcc/nios2-elf/4.1.2/mno-hw-mul\libgcc.a(_muldi3.o)
                              c:/altera/12.1/nios2eds/bin/gnu/h-i686-mingw32/bin/../lib/gcc/nios2-elf/4.1.2/mno-hw-mul\libgcc.a(_mul_df.o) (__muldi3)
c:/altera/12.1/nios2eds/bin/gnu/h-i686-mingw32/bin/../lib/gcc/nios2-elf/4.1.2/mno-hw-mul\libgcc.a(_clz.o)
                              c:/altera/12.1/nios2eds/bin/gnu/h-i686-mingw32/bin/../lib/gcc/nios2-elf/4.1.2/mno-hw-mul\libgcc.a(_udivdi3.o) (__clz_tab)
c:/altera/12.1/nios2eds/bin/gnu/h-i686-mingw32/bin/../lib/gcc/nios2-elf/4.1.2/mno-hw-mul\libgcc.a(_clzsi2.o)
                              c:/altera/12.1/nios2eds/bin/gnu/h-i686-mingw32/bin/../lib/gcc/nios2-elf/4.1.2/mno-hw-mul\libgcc.a(_si_to_df.o) (__clzsi2)
c:/altera/12.1/nios2eds/bin/gnu/h-i686-mingw32/bin/../lib/gcc/nios2-elf/4.1.2/mno-hw-mul\libgcc.a(_pack_df.o)
                              c:/altera/12.1/nios2eds/bin/gnu/h-i686-mingw32/bin/../lib/gcc/nios2-elf/4.1.2/mno-hw-mul\libgcc.a(_addsub_df.o) (__pack_d)
c:/altera/12.1/nios2eds/bin/gnu/h-i686-mingw32/bin/../lib/gcc/nios2-elf/4.1.2/mno-hw-mul\libgcc.a(_unpack_df.o)
                              c:/altera/12.1/nios2eds/bin/gnu/h-i686-mingw32/bin/../lib/gcc/nios2-elf/4.1.2/mno-hw-mul\libgcc.a(_addsub_df.o) (__unpack_d)
c:/altera/12.1/nios2eds/bin/gnu/h-i686-mingw32/bin/../lib/gcc/nios2-elf/4.1.2/mno-hw-mul\libgcc.a(_fpcmp_parts_df.o)
                              c:/altera/12.1/nios2eds/bin/gnu/h-i686-mingw32/bin/../lib/gcc/nios2-elf/4.1.2/mno-hw-mul\libgcc.a(_eq_df.o) (__fpcmp_parts_d)
C:/work/fpga/nios2_camera_sdram_lcd/prj_eclipse/nios2_camera_sdram_lcd_bsp/\libhal_bsp.a(alt_close.o)
                              c:/altera/12.1/nios2eds/bin/gnu/h-i686-mingw32/bin/../lib/gcc/nios2-elf/4.1.2/../../../../nios2-elf/lib/mno-hw-mul\libc.a(lib_a-closer.o) (close)
C:/work/fpga/nios2_camera_sdram_lcd/prj_eclipse/nios2_camera_sdram_lcd_bsp/\libhal_bsp.a(alt_dev.o)
                              C:/work/fpga/nios2_camera_sdram_lcd/prj_eclipse/nios2_camera_sdram_lcd_bsp/\libhal_bsp.a(alt_close.o) (alt_fd_list)
C:/work/fpga/nios2_camera_sdram_lcd/prj_eclipse/nios2_camera_sdram_lcd_bsp/\libhal_bsp.a(alt_errno.o)
                              C:/work/fpga/nios2_camera_sdram_lcd/prj_eclipse/nios2_camera_sdram_lcd_bsp/\libhal_bsp.a(alt_close.o) (alt_errno)
C:/work/fpga/nios2_camera_sdram_lcd/prj_eclipse/nios2_camera_sdram_lcd_bsp/\libhal_bsp.a(alt_fstat.o)
                              c:/altera/12.1/nios2eds/bin/gnu/h-i686-mingw32/bin/../lib/gcc/nios2-elf/4.1.2/../../../../nios2-elf/lib/mno-hw-mul\libc.a(lib_a-fstatr.o) (fstat)
C:/work/fpga/nios2_camera_sdram_lcd/prj_eclipse/nios2_camera_sdram_lcd_bsp/\libhal_bsp.a(alt_iic.o)
                              obj/default/hello_world.o (alt_ic_isr_register)
C:/work/fpga/nios2_camera_sdram_lcd/prj_eclipse/nios2_camera_sdram_lcd_bsp/\libhal_bsp.a(alt_iic_isr_register.o)
                              C:/work/fpga/nios2_camera_sdram_lcd/prj_eclipse/nios2_camera_sdram_lcd_bsp/\libhal_bsp.a(alt_iic.o) (alt_iic_isr_register)
C:/work/fpga/nios2_camera_sdram_lcd/prj_eclipse/nios2_camera_sdram_lcd_bsp/\libhal_bsp.a(alt_irq_entry.o)
                              C:/work/fpga/nios2_camera_sdram_lcd/prj_eclipse/nios2_camera_sdram_lcd_bsp/\libhal_bsp.a(alt_iic_isr_register.o) (alt_irq_entry)
C:/work/fpga/nios2_camera_sdram_lcd/prj_eclipse/nios2_camera_sdram_lcd_bsp/\libhal_bsp.a(alt_irq_handler.o)
                              C:/work/fpga/nios2_camera_sdram_lcd/prj_eclipse/nios2_camera_sdram_lcd_bsp/\libhal_bsp.a(alt_iic_isr_register.o) (alt_irq_handler)
C:/work/fpga/nios2_camera_sdram_lcd/prj_eclipse/nios2_camera_sdram_lcd_bsp/\libhal_bsp.a(alt_irq_vars.o)
                              C:/work/fpga/nios2_camera_sdram_lcd/prj_eclipse/nios2_camera_sdram_lcd_bsp/\libhal_bsp.a(alt_iic.o) (alt_irq_active)
C:/work/fpga/nios2_camera_sdram_lcd/prj_eclipse/nios2_camera_sdram_lcd_bsp/\libhal_bsp.a(alt_isatty.o)
                              c:/altera/12.1/nios2eds/bin/gnu/h-i686-mingw32/bin/../lib/gcc/nios2-elf/4.1.2/../../../../nios2-elf/lib/mno-hw-mul\libc.a(lib_a-isattyr.o) (isatty)
C:/work/fpga/nios2_camera_sdram_lcd/prj_eclipse/nios2_camera_sdram_lcd_bsp/\libhal_bsp.a(alt_load.o)
                              C:/work/fpga/nios2_camera_sdram_lcd/prj_eclipse/nios2_camera_sdram_lcd_bsp//obj/HAL/src/crt0.o (alt_load)
C:/work/fpga/nios2_camera_sdram_lcd/prj_eclipse/nios2_camera_sdram_lcd_bsp/\libhal_bsp.a(alt_lseek.o)
                              c:/altera/12.1/nios2eds/bin/gnu/h-i686-mingw32/bin/../lib/gcc/nios2-elf/4.1.2/../../../../nios2-elf/lib/mno-hw-mul\libc.a(lib_a-lseekr.o) (lseek)
C:/work/fpga/nios2_camera_sdram_lcd/prj_eclipse/nios2_camera_sdram_lcd_bsp/\libhal_bsp.a(alt_main.o)
                              C:/work/fpga/nios2_camera_sdram_lcd/prj_eclipse/nios2_camera_sdram_lcd_bsp//obj/HAL/src/crt0.o (alt_main)
C:/work/fpga/nios2_camera_sdram_lcd/prj_eclipse/nios2_camera_sdram_lcd_bsp/\libhal_bsp.a(alt_malloc_lock.o)
                              c:/altera/12.1/nios2eds/bin/gnu/h-i686-mingw32/bin/../lib/gcc/nios2-elf/4.1.2/../../../../nios2-elf/lib/mno-hw-mul\libc.a(lib_a-freer.o) (__malloc_lock)
C:/work/fpga/nios2_camera_sdram_lcd/prj_eclipse/nios2_camera_sdram_lcd_bsp/\libhal_bsp.a(alt_read.o)
                              c:/altera/12.1/nios2eds/bin/gnu/h-i686-mingw32/bin/../lib/gcc/nios2-elf/4.1.2/../../../../nios2-elf/lib/mno-hw-mul\libc.a(lib_a-readr.o) (read)
C:/work/fpga/nios2_camera_sdram_lcd/prj_eclipse/nios2_camera_sdram_lcd_bsp/\libhal_bsp.a(alt_release_fd.o)
                              C:/work/fpga/nios2_camera_sdram_lcd/prj_eclipse/nios2_camera_sdram_lcd_bsp/\libhal_bsp.a(alt_close.o) (alt_release_fd)
C:/work/fpga/nios2_camera_sdram_lcd/prj_eclipse/nios2_camera_sdram_lcd_bsp/\libhal_bsp.a(alt_sbrk.o)
                              c:/altera/12.1/nios2eds/bin/gnu/h-i686-mingw32/bin/../lib/gcc/nios2-elf/4.1.2/../../../../nios2-elf/lib/mno-hw-mul\libc.a(lib_a-sbrkr.o) (sbrk)
C:/work/fpga/nios2_camera_sdram_lcd/prj_eclipse/nios2_camera_sdram_lcd_bsp/\libhal_bsp.a(alt_usleep.o)
                              obj/default/hello_world.o (usleep)
C:/work/fpga/nios2_camera_sdram_lcd/prj_eclipse/nios2_camera_sdram_lcd_bsp/\libhal_bsp.a(alt_write.o)
                              c:/altera/12.1/nios2eds/bin/gnu/h-i686-mingw32/bin/../lib/gcc/nios2-elf/4.1.2/../../../../nios2-elf/lib/mno-hw-mul\libc.a(lib_a-writer.o) (write)
C:/work/fpga/nios2_camera_sdram_lcd/prj_eclipse/nios2_camera_sdram_lcd_bsp/\libhal_bsp.a(alt_sys_init.o)
                              C:/work/fpga/nios2_camera_sdram_lcd/prj_eclipse/nios2_camera_sdram_lcd_bsp/\libhal_bsp.a(alt_main.o) (alt_irq_init)
C:/work/fpga/nios2_camera_sdram_lcd/prj_eclipse/nios2_camera_sdram_lcd_bsp/\libhal_bsp.a(altera_avalon_jtag_uart_fd.o)
                              C:/work/fpga/nios2_camera_sdram_lcd/prj_eclipse/nios2_camera_sdram_lcd_bsp/\libhal_bsp.a(alt_sys_init.o) (altera_avalon_jtag_uart_read_fd)
C:/work/fpga/nios2_camera_sdram_lcd/prj_eclipse/nios2_camera_sdram_lcd_bsp/\libhal_bsp.a(altera_avalon_jtag_uart_init.o)
                              C:/work/fpga/nios2_camera_sdram_lcd/prj_eclipse/nios2_camera_sdram_lcd_bsp/\libhal_bsp.a(alt_sys_init.o) (altera_avalon_jtag_uart_init)
C:/work/fpga/nios2_camera_sdram_lcd/prj_eclipse/nios2_camera_sdram_lcd_bsp/\libhal_bsp.a(altera_avalon_jtag_uart_ioctl.o)
                              C:/work/fpga/nios2_camera_sdram_lcd/prj_eclipse/nios2_camera_sdram_lcd_bsp/\libhal_bsp.a(altera_avalon_jtag_uart_fd.o) (altera_avalon_jtag_uart_ioctl)
C:/work/fpga/nios2_camera_sdram_lcd/prj_eclipse/nios2_camera_sdram_lcd_bsp/\libhal_bsp.a(altera_avalon_jtag_uart_read.o)
                              C:/work/fpga/nios2_camera_sdram_lcd/prj_eclipse/nios2_camera_sdram_lcd_bsp/\libhal_bsp.a(altera_avalon_jtag_uart_fd.o) (altera_avalon_jtag_uart_read)
C:/work/fpga/nios2_camera_sdram_lcd/prj_eclipse/nios2_camera_sdram_lcd_bsp/\libhal_bsp.a(altera_avalon_jtag_uart_write.o)
                              C:/work/fpga/nios2_camera_sdram_lcd/prj_eclipse/nios2_camera_sdram_lcd_bsp/\libhal_bsp.a(altera_avalon_jtag_uart_fd.o) (altera_avalon_jtag_uart_write)
C:/work/fpga/nios2_camera_sdram_lcd/prj_eclipse/nios2_camera_sdram_lcd_bsp/\libhal_bsp.a(alt_alarm_start.o)
                              C:/work/fpga/nios2_camera_sdram_lcd/prj_eclipse/nios2_camera_sdram_lcd_bsp/\libhal_bsp.a(altera_avalon_jtag_uart_init.o) (alt_alarm_start)
C:/work/fpga/nios2_camera_sdram_lcd/prj_eclipse/nios2_camera_sdram_lcd_bsp/\libhal_bsp.a(alt_busy_sleep.o)
                              C:/work/fpga/nios2_camera_sdram_lcd/prj_eclipse/nios2_camera_sdram_lcd_bsp/\libhal_bsp.a(alt_usleep.o) (alt_busy_sleep)
C:/work/fpga/nios2_camera_sdram_lcd/prj_eclipse/nios2_camera_sdram_lcd_bsp/\libhal_bsp.a(alt_dcache_flush_all.o)
                              C:/work/fpga/nios2_camera_sdram_lcd/prj_eclipse/nios2_camera_sdram_lcd_bsp/\libhal_bsp.a(alt_load.o) (alt_dcache_flush_all)
C:/work/fpga/nios2_camera_sdram_lcd/prj_eclipse/nios2_camera_sdram_lcd_bsp/\libhal_bsp.a(alt_dev_llist_insert.o)
                              C:/work/fpga/nios2_camera_sdram_lcd/prj_eclipse/nios2_camera_sdram_lcd_bsp/\libhal_bsp.a(alt_sys_init.o) (alt_dev_llist_insert)
C:/work/fpga/nios2_camera_sdram_lcd/prj_eclipse/nios2_camera_sdram_lcd_bsp/\libhal_bsp.a(alt_do_ctors.o)
                              C:/work/fpga/nios2_camera_sdram_lcd/prj_eclipse/nios2_camera_sdram_lcd_bsp/\libhal_bsp.a(alt_main.o) (_do_ctors)
C:/work/fpga/nios2_camera_sdram_lcd/prj_eclipse/nios2_camera_sdram_lcd_bsp/\libhal_bsp.a(alt_do_dtors.o)
                              C:/work/fpga/nios2_camera_sdram_lcd/prj_eclipse/nios2_camera_sdram_lcd_bsp/\libhal_bsp.a(alt_main.o) (_do_dtors)
C:/work/fpga/nios2_camera_sdram_lcd/prj_eclipse/nios2_camera_sdram_lcd_bsp/\libhal_bsp.a(alt_exception_entry.o)
                              C:/work/fpga/nios2_camera_sdram_lcd/prj_eclipse/nios2_camera_sdram_lcd_bsp/\libhal_bsp.a(alt_irq_entry.o) (alt_exception)
C:/work/fpga/nios2_camera_sdram_lcd/prj_eclipse/nios2_camera_sdram_lcd_bsp/\libhal_bsp.a(alt_icache_flush_all.o)
                              C:/work/fpga/nios2_camera_sdram_lcd/prj_eclipse/nios2_camera_sdram_lcd_bsp/\libhal_bsp.a(alt_load.o) (alt_icache_flush_all)
C:/work/fpga/nios2_camera_sdram_lcd/prj_eclipse/nios2_camera_sdram_lcd_bsp/\libhal_bsp.a(alt_io_redirect.o)
                              C:/work/fpga/nios2_camera_sdram_lcd/prj_eclipse/nios2_camera_sdram_lcd_bsp/\libhal_bsp.a(alt_main.o) (alt_io_redirect)
C:/work/fpga/nios2_camera_sdram_lcd/prj_eclipse/nios2_camera_sdram_lcd_bsp/\libhal_bsp.a(alt_open.o)
                              C:/work/fpga/nios2_camera_sdram_lcd/prj_eclipse/nios2_camera_sdram_lcd_bsp/\libhal_bsp.a(alt_io_redirect.o) (open)
C:/work/fpga/nios2_camera_sdram_lcd/prj_eclipse/nios2_camera_sdram_lcd_bsp/\libhal_bsp.a(alt_tick.o)
                              C:/work/fpga/nios2_camera_sdram_lcd/prj_eclipse/nios2_camera_sdram_lcd_bsp/\libhal_bsp.a(altera_avalon_jtag_uart_init.o) (_alt_tick_rate)
C:/work/fpga/nios2_camera_sdram_lcd/prj_eclipse/nios2_camera_sdram_lcd_bsp/\libhal_bsp.a(altera_nios2_qsys_irq.o)
                              C:/work/fpga/nios2_camera_sdram_lcd/prj_eclipse/nios2_camera_sdram_lcd_bsp/\libhal_bsp.a(alt_sys_init.o) (altera_nios2_qsys_irq_init)
C:/work/fpga/nios2_camera_sdram_lcd/prj_eclipse/nios2_camera_sdram_lcd_bsp/\libhal_bsp.a(alt_find_dev.o)
                              C:/work/fpga/nios2_camera_sdram_lcd/prj_eclipse/nios2_camera_sdram_lcd_bsp/\libhal_bsp.a(alt_open.o) (alt_find_dev)
C:/work/fpga/nios2_camera_sdram_lcd/prj_eclipse/nios2_camera_sdram_lcd_bsp/\libhal_bsp.a(alt_find_file.o)
                              C:/work/fpga/nios2_camera_sdram_lcd/prj_eclipse/nios2_camera_sdram_lcd_bsp/\libhal_bsp.a(alt_open.o) (alt_find_file)
C:/work/fpga/nios2_camera_sdram_lcd/prj_eclipse/nios2_camera_sdram_lcd_bsp/\libhal_bsp.a(alt_get_fd.o)
                              C:/work/fpga/nios2_camera_sdram_lcd/prj_eclipse/nios2_camera_sdram_lcd_bsp/\libhal_bsp.a(alt_open.o) (alt_get_fd)
c:/altera/12.1/nios2eds/bin/gnu/h-i686-mingw32/bin/../lib/gcc/nios2-elf/4.1.2/../../../../nios2-elf/lib/mno-hw-mul\libc.a(lib_a-atexit.o)
                              C:/work/fpga/nios2_camera_sdram_lcd/prj_eclipse/nios2_camera_sdram_lcd_bsp/\libhal_bsp.a(alt_main.o) (atexit)
c:/altera/12.1/nios2eds/bin/gnu/h-i686-mingw32/bin/../lib/gcc/nios2-elf/4.1.2/../../../../nios2-elf/lib/mno-hw-mul\libc.a(lib_a-exit.o)
                              C:/work/fpga/nios2_camera_sdram_lcd/prj_eclipse/nios2_camera_sdram_lcd_bsp/\libhal_bsp.a(alt_main.o) (exit)
c:/altera/12.1/nios2eds/bin/gnu/h-i686-mingw32/bin/../lib/gcc/nios2-elf/4.1.2/../../../../nios2-elf/lib/mno-hw-mul\libc.a(lib_a-memcmp.o)
                              C:/work/fpga/nios2_camera_sdram_lcd/prj_eclipse/nios2_camera_sdram_lcd_bsp/\libhal_bsp.a(alt_find_dev.o) (memcmp)
c:/altera/12.1/nios2eds/bin/gnu/h-i686-mingw32/bin/../lib/gcc/nios2-elf/4.1.2/../../../../nios2-elf/lib/mno-hw-mul\libc.a(lib_a-__atexit.o)
                              c:/altera/12.1/nios2eds/bin/gnu/h-i686-mingw32/bin/../lib/gcc/nios2-elf/4.1.2/../../../../nios2-elf/lib/mno-hw-mul\libc.a(lib_a-atexit.o) (__register_exitproc)
c:/altera/12.1/nios2eds/bin/gnu/h-i686-mingw32/bin/../lib/gcc/nios2-elf/4.1.2/../../../../nios2-elf/lib/mno-hw-mul\libc.a(lib_a-__call_atexit.o)
                              c:/altera/12.1/nios2eds/bin/gnu/h-i686-mingw32/bin/../lib/gcc/nios2-elf/4.1.2/../../../../nios2-elf/lib/mno-hw-mul\libc.a(lib_a-exit.o) (__call_exitprocs)
C:/work/fpga/nios2_camera_sdram_lcd/prj_eclipse/nios2_camera_sdram_lcd_bsp/\libhal_bsp.a(alt_exit.o)
                              c:/altera/12.1/nios2eds/bin/gnu/h-i686-mingw32/bin/../lib/gcc/nios2-elf/4.1.2/../../../../nios2-elf/lib/mno-hw-mul\libc.a(lib_a-exit.o) (_exit)

Allocating common symbols
Common symbol       size              file

alt_irq             0x100             C:/work/fpga/nios2_camera_sdram_lcd/prj_eclipse/nios2_camera_sdram_lcd_bsp/\libhal_bsp.a(alt_irq_handler.o)
errno               0x4               c:/altera/12.1/nios2eds/bin/gnu/h-i686-mingw32/bin/../lib/gcc/nios2-elf/4.1.2/../../../../nios2-elf/lib/mno-hw-mul\libc.a(lib_a-int_errno.o)
_atexit0            0x190             c:/altera/12.1/nios2eds/bin/gnu/h-i686-mingw32/bin/../lib/gcc/nios2-elf/4.1.2/../../../../nios2-elf/lib/mno-hw-mul\libc.a(lib_a-atexit.o)

Memory Configuration

Name             Origin             Length             Attributes
reset            0x00000000         0x00000020
sdram            0x00000020         0x01ffffe0
*default*        0x00000000         0xffffffff

Linker script and memory map

LOAD C:/work/fpga/nios2_camera_sdram_lcd/prj_eclipse/nios2_camera_sdram_lcd_bsp//obj/HAL/src/crt0.o
LOAD obj/default/avalon_isp_algo_2a.o
LOAD obj/default/hello_world.o
LOAD obj/default/ov5640_drv.o
LOAD c:/altera/12.1/nios2eds/bin/gnu/h-i686-mingw32/bin/../lib/gcc/nios2-elf/4.1.2/../../../../nios2-elf/lib/mno-hw-mul\libstdc++.a
LOAD c:/altera/12.1/nios2eds/bin/gnu/h-i686-mingw32/bin/../lib/gcc/nios2-elf/4.1.2/../../../../nios2-elf/lib/mno-hw-mul\libm.a
LOAD c:/altera/12.1/nios2eds/bin/gnu/h-i686-mingw32/bin/../lib/gcc/nios2-elf/4.1.2/mno-hw-mul\libgcc.a
START GROUP
LOAD c:/altera/12.1/nios2eds/bin/gnu/h-i686-mingw32/bin/../lib/gcc/nios2-elf/4.1.2/../../../../nios2-elf/lib/mno-hw-mul\libc.a
LOAD c:/altera/12.1/nios2eds/bin/gnu/h-i686-mingw32/bin/../lib/gcc/nios2-elf/4.1.2/mno-hw-mul\libgcc.a
LOAD C:/work/fpga/nios2_camera_sdram_lcd/prj_eclipse/nios2_camera_sdram_lcd_bsp/\libhal_bsp.a
END GROUP
LOAD c:/altera/12.1/nios2eds/bin/gnu/h-i686-mingw32/bin/../lib/gcc/nios2-elf/4.1.2/mno-hw-mul\libgcc.a
                0x00000000                __alt_mem_sdram = 0x0

.entry          0x00000000       0x20
 *(.entry)
 .entry         0x00000000       0x20 C:/work/fpga/nios2_camera_sdram_lcd/prj_eclipse/nios2_camera_sdram_lcd_bsp//obj/HAL/src/crt0.o
                0x00000000                __reset

.exceptions     0x00000020      0x194
                0x00000020                PROVIDE (__ram_exceptions_start, ABSOLUTE (.))
                0x00000020                . = ALIGN (0x20)
 *(.irq)
 *(.exceptions.entry.label)
 .exceptions.entry.label
                0x00000020        0x0 C:/work/fpga/nios2_camera_sdram_lcd/prj_eclipse/nios2_camera_sdram_lcd_bsp/\libhal_bsp.a(alt_irq_entry.o)
                0x00000020                alt_irq_entry
 .exceptions.entry.label
                0x00000020        0x0 C:/work/fpga/nios2_camera_sdram_lcd/prj_eclipse/nios2_camera_sdram_lcd_bsp/\libhal_bsp.a(alt_exception_entry.o)
                0x00000020                alt_exception
 *(.exceptions.entry.user)
 *(.exceptions.entry)
 .exceptions.entry
                0x00000020       0x54 C:/work/fpga/nios2_camera_sdram_lcd/prj_eclipse/nios2_camera_sdram_lcd_bsp/\libhal_bsp.a(alt_exception_entry.o)
 *(.exceptions.irqtest.user)
 *(.exceptions.irqtest)
 .exceptions.irqtest
                0x00000074       0x10 C:/work/fpga/nios2_camera_sdram_lcd/prj_eclipse/nios2_camera_sdram_lcd_bsp/\libhal_bsp.a(alt_irq_entry.o)
 *(.exceptions.irqhandler.user)
 *(.exceptions.irqhandler)
 .exceptions.irqhandler
                0x00000084        0x4 C:/work/fpga/nios2_camera_sdram_lcd/prj_eclipse/nios2_camera_sdram_lcd_bsp/\libhal_bsp.a(alt_irq_entry.o)
 *(.exceptions.irqreturn.user)
 *(.exceptions.irqreturn)
 .exceptions.irqreturn
                0x00000088        0x4 C:/work/fpga/nios2_camera_sdram_lcd/prj_eclipse/nios2_camera_sdram_lcd_bsp/\libhal_bsp.a(alt_irq_entry.o)
 *(.exceptions.notirq.label)
 .exceptions.notirq.label
                0x0000008c        0x0 C:/work/fpga/nios2_camera_sdram_lcd/prj_eclipse/nios2_camera_sdram_lcd_bsp/\libhal_bsp.a(alt_irq_entry.o)
 *(.exceptions.notirq.user)
 *(.exceptions.notirq)
 .exceptions.notirq
                0x0000008c        0x8 C:/work/fpga/nios2_camera_sdram_lcd/prj_eclipse/nios2_camera_sdram_lcd_bsp/\libhal_bsp.a(alt_exception_entry.o)
 *(.exceptions.soft.user)
 *(.exceptions.soft)
 *(.exceptions.unknown.user)
 *(.exceptions.unknown)
 .exceptions.unknown
                0x00000094        0x4 C:/work/fpga/nios2_camera_sdram_lcd/prj_eclipse/nios2_camera_sdram_lcd_bsp/\libhal_bsp.a(alt_exception_entry.o)
 *(.exceptions.exit.label)
 .exceptions.exit.label
                0x00000098        0x0 C:/work/fpga/nios2_camera_sdram_lcd/prj_eclipse/nios2_camera_sdram_lcd_bsp/\libhal_bsp.a(alt_irq_entry.o)
 .exceptions.exit.label
                0x00000098        0x0 C:/work/fpga/nios2_camera_sdram_lcd/prj_eclipse/nios2_camera_sdram_lcd_bsp/\libhal_bsp.a(alt_exception_entry.o)
 *(.exceptions.exit.user)
 *(.exceptions.exit)
 .exceptions.exit
                0x00000098       0x54 C:/work/fpga/nios2_camera_sdram_lcd/prj_eclipse/nios2_camera_sdram_lcd_bsp/\libhal_bsp.a(alt_exception_entry.o)
 *(.exceptions)
 .exceptions    0x000000ec       0xc8 C:/work/fpga/nios2_camera_sdram_lcd/prj_eclipse/nios2_camera_sdram_lcd_bsp/\libhal_bsp.a(alt_irq_handler.o)
                0x000000ec                alt_irq_handler
                0x000001b4                PROVIDE (__ram_exceptions_end, ABSOLUTE (.))
                0x00000020                PROVIDE (__flash_exceptions_start, LOADADDR (.exceptions))

.text           0x000001b4     0xdec0
                0x000001b4                PROVIDE (stext, ABSOLUTE (.))
 *(.interp)
 *(.hash)
 *(.dynsym)
 *(.dynstr)
 *(.gnu.version)
 *(.gnu.version_d)
 *(.gnu.version_r)
 *(.rel.init)
 *(.rela.init)
 *(.rel.text .rel.text.* .rel.gnu.linkonce.t.*)
 *(.rela.text .rela.text.* .rela.gnu.linkonce.t.*)
 *(.rel.fini)
 *(.rela.fini)
 *(.rel.rodata .rel.rodata.* .rel.gnu.linkonce.r.*)
 *(.rela.rodata .rela.rodata.* .rela.gnu.linkonce.r.*)
 *(.rel.data .rel.data.* .rel.gnu.linkonce.d.*)
 *(.rela.data .rela.data.* .rela.gnu.linkonce.d.*)
 *(.rel.tdata .rel.tdata.* .rel.gnu.linkonce.td.*)
 *(.rela.tdata .rela.tdata.* .rela.gnu.linkonce.td.*)
 *(.rel.tbss .rel.tbss.* .rel.gnu.linkonce.tb.*)
 *(.rela.tbss .rela.tbss.* .rela.gnu.linkonce.tb.*)
 *(.rel.ctors)
 *(.rela.ctors)
 *(.rel.dtors)
 *(.rela.dtors)
 *(.rel.got)
 *(.rela.got)
 *(.rel.sdata .rel.sdata.* .rel.gnu.linkonce.s.*)
 *(.rela.sdata .rela.sdata.* .rela.gnu.linkonce.s.*)
 *(.rel.sbss .rel.sbss.* .rel.gnu.linkonce.sb.*)
 *(.rela.sbss .rela.sbss.* .rela.gnu.linkonce.sb.*)
 *(.rel.sdata2 .rel.sdata2.* .rel.gnu.linkonce.s2.*)
 *(.rela.sdata2 .rela.sdata2.* .rela.gnu.linkonce.s2.*)
 *(.rel.sbss2 .rel.sbss2.* .rel.gnu.linkonce.sb2.*)
 *(.rela.sbss2 .rela.sbss2.* .rela.gnu.linkonce.sb2.*)
 *(.rel.bss .rel.bss.* .rel.gnu.linkonce.b.*)
 *(.rela.bss .rela.bss.* .rela.gnu.linkonce.b.*)
 *(.rel.plt)
 *(.rela.plt)
 *(.rel.dyn)
 *(.init)
 *(.plt)
 *(.text .stub .text.* .gnu.linkonce.t.*)
 .text          0x000001b4       0x3c C:/work/fpga/nios2_camera_sdram_lcd/prj_eclipse/nios2_camera_sdram_lcd_bsp//obj/HAL/src/crt0.o
                0x000001b4                _start
 .text          0x000001f0      0x388 obj/default/avalon_isp_algo_2a.o
                0x000001f0                isp_ae_handler
                0x000004b4                isp_awb_handler
 .text          0x00000578      0x690 obj/default/hello_world.o
                0x00000924                main
 .text          0x00000c08      0xf4c obj/default/ov5640_drv.o
                0x0000142c                ov5640_init_raw_1280_960_30fps_crop_960_544
                0x00001aa0                cmos_set_exposure
                0x00001b04                cmos_set_gain
 .text          0x00001b54      0x14c c:/altera/12.1/nios2eds/bin/gnu/h-i686-mingw32/bin/../lib/gcc/nios2-elf/4.1.2/mno-hw-mul\libgcc.a(lib2-divmod.o)
                0x00001bd0                __divsi3
                0x00001c30                __modsi3
                0x00001c90                __udivsi3
                0x00001c98                __umodsi3
 .text          0x00001ca0       0x38 c:/altera/12.1/nios2eds/bin/gnu/h-i686-mingw32/bin/../lib/gcc/nios2-elf/4.1.2/mno-hw-mul\libgcc.a(lib2-mul.o)
                0x00001ca0                __mulsi3
 .text          0x00001cd8       0x78 c:/altera/12.1/nios2eds/bin/gnu/h-i686-mingw32/bin/../lib/gcc/nios2-elf/4.1.2/../../../../nios2-elf/lib/mno-hw-mul\libc.a(lib_a-printf.o)
                0x00001cd8                printf
                0x00001d1c                _printf_r
 .text          0x00001d50       0xb4 c:/altera/12.1/nios2eds/bin/gnu/h-i686-mingw32/bin/../lib/gcc/nios2-elf/4.1.2/../../../../nios2-elf/lib/mno-hw-mul\libc.a(lib_a-puts.o)
                0x00001d50                _puts_r
                0x00001df0                puts
 .text          0x00001e04       0x74 c:/altera/12.1/nios2eds/bin/gnu/h-i686-mingw32/bin/../lib/gcc/nios2-elf/4.1.2/../../../../nios2-elf/lib/mno-hw-mul\libc.a(lib_a-strlen.o)
                0x00001e04                strlen
 .text          0x00001e78     0x1f40 c:/altera/12.1/nios2eds/bin/gnu/h-i686-mingw32/bin/../lib/gcc/nios2-elf/4.1.2/../../../../nios2-elf/lib/mno-hw-mul\libc.a(lib_a-vfprintf.o)
                0x00001ed0                ___vfprintf_internal_r
                0x00003d94                __vfprintf_internal
 .text          0x00003db8      0x13c c:/altera/12.1/nios2eds/bin/gnu/h-i686-mingw32/bin/../lib/gcc/nios2-elf/4.1.2/../../../../nios2-elf/lib/mno-hw-mul\libc.a(lib_a-wsetup.o)
                0x00003db8                __swsetup_r
 .text          0x00003ef4     0x17f8 c:/altera/12.1/nios2eds/bin/gnu/h-i686-mingw32/bin/../lib/gcc/nios2-elf/4.1.2/../../../../nios2-elf/lib/mno-hw-mul\libc.a(lib_a-dtoa.o)
                0x00004138                _dtoa_r
 .text          0x000056ec      0x230 c:/altera/12.1/nios2eds/bin/gnu/h-i686-mingw32/bin/../lib/gcc/nios2-elf/4.1.2/../../../../nios2-elf/lib/mno-hw-mul\libc.a(lib_a-fflush.o)
                0x000056ec                _fflush_r
                0x000058e8                fflush
 .text          0x0000591c      0x2f4 c:/altera/12.1/nios2eds/bin/gnu/h-i686-mingw32/bin/../lib/gcc/nios2-elf/4.1.2/../../../../nios2-elf/lib/mno-hw-mul\libc.a(lib_a-findfp.o)
                0x00005974                __sfp_lock_acquire
                0x00005978                __sfp_lock_release
                0x0000597c                __sinit_lock_acquire
                0x00005980                __sinit_lock_release
                0x00005984                __sinit
                0x00005a38                __fp_unlock_all
                0x00005a50                __fp_lock_all
                0x00005a68                _cleanup_r
                0x00005a74                _cleanup
                0x00005a84                __sfmoreglue
                0x00005b20                __sfp
 .text          0x00005c10      0x440 c:/altera/12.1/nios2eds/bin/gnu/h-i686-mingw32/bin/../lib/gcc/nios2-elf/4.1.2/../../../../nios2-elf/lib/mno-hw-mul\libc.a(lib_a-freer.o)
                0x00005c10                _malloc_trim_r
                0x00005d3c                _free_r
 .text          0x00006050      0x49c c:/altera/12.1/nios2eds/bin/gnu/h-i686-mingw32/bin/../lib/gcc/nios2-elf/4.1.2/../../../../nios2-elf/lib/mno-hw-mul\libc.a(lib_a-fvwrite.o)
                0x00006050                __sfvwrite_r
 .text          0x000064ec      0x180 c:/altera/12.1/nios2eds/bin/gnu/h-i686-mingw32/bin/../lib/gcc/nios2-elf/4.1.2/../../../../nios2-elf/lib/mno-hw-mul\libc.a(lib_a-fwalk.o)
                0x000064ec                _fwalk_reent
                0x000065b4                _fwalk
 .text          0x0000666c        0x0 c:/altera/12.1/nios2eds/bin/gnu/h-i686-mingw32/bin/../lib/gcc/nios2-elf/4.1.2/../../../../nios2-elf/lib/mno-hw-mul\libc.a(lib_a-impure.o)
 .text          0x0000666c       0xc4 c:/altera/12.1/nios2eds/bin/gnu/h-i686-mingw32/bin/../lib/gcc/nios2-elf/4.1.2/../../../../nios2-elf/lib/mno-hw-mul\libc.a(lib_a-locale.o)
                0x0000666c                __locale_charset
                0x00006674                _localeconv_r
                0x00006680                localeconv
                0x00006690                _setlocale_r
                0x00006714                setlocale
 .text          0x00006730      0x194 c:/altera/12.1/nios2eds/bin/gnu/h-i686-mingw32/bin/../lib/gcc/nios2-elf/4.1.2/../../../../nios2-elf/lib/mno-hw-mul\libc.a(lib_a-makebuf.o)
                0x00006730                __smakebuf_r
 .text          0x000068c4      0x740 c:/altera/12.1/nios2eds/bin/gnu/h-i686-mingw32/bin/../lib/gcc/nios2-elf/4.1.2/../../../../nios2-elf/lib/mno-hw-mul\libc.a(lib_a-mallocr.o)
                0x000068c4                _malloc_r
 .text          0x00007004       0xe4 c:/altera/12.1/nios2eds/bin/gnu/h-i686-mingw32/bin/../lib/gcc/nios2-elf/4.1.2/../../../../nios2-elf/lib/mno-hw-mul\libc.a(lib_a-memchr.o)
                0x00007004                memchr
 .text          0x000070e8       0xa0 c:/altera/12.1/nios2eds/bin/gnu/h-i686-mingw32/bin/../lib/gcc/nios2-elf/4.1.2/../../../../nios2-elf/lib/mno-hw-mul\libc.a(lib_a-memcpy.o)
                0x000070e8                memcpy
 .text          0x00007188       0xe0 c:/altera/12.1/nios2eds/bin/gnu/h-i686-mingw32/bin/../lib/gcc/nios2-elf/4.1.2/../../../../nios2-elf/lib/mno-hw-mul\libc.a(lib_a-memmove.o)
                0x00007188                memmove
 .text          0x00007268       0x98 c:/altera/12.1/nios2eds/bin/gnu/h-i686-mingw32/bin/../lib/gcc/nios2-elf/4.1.2/../../../../nios2-elf/lib/mno-hw-mul\libc.a(lib_a-memset.o)
                0x00007268                memset
 .text          0x00007300     0x108c c:/altera/12.1/nios2eds/bin/gnu/h-i686-mingw32/bin/../lib/gcc/nios2-elf/4.1.2/../../../../nios2-elf/lib/mno-hw-mul\libc.a(lib_a-mprec.o)
                0x00007300                _Bfree
                0x00007328                __hi0bits
                0x00007398                __lo0bits
                0x0000745c                __mcmp
                0x000074bc                __ulp
                0x0000753c                __b2d
                0x0000765c                __ratio
                0x0000770c                _mprec_log10
                0x000077a0                __copybits
                0x000077f8                __any_on
                0x00007880                _Balloc
                0x0000793c                __d2b
                0x00007ab8                __mdiff
                0x00007c44                __lshift
                0x00007d90                __multiply
                0x00007fe4                __i2b
                0x00008020                __multadd
                0x0000814c                __pow5mult
                0x0000826c                __s2b
 .text          0x0000838c      0x5f4 c:/altera/12.1/nios2eds/bin/gnu/h-i686-mingw32/bin/../lib/gcc/nios2-elf/4.1.2/../../../../nios2-elf/lib/mno-hw-mul\libc.a(lib_a-reallocr.o)
                0x0000838c                _realloc_r
 .text          0x00008980       0x40 c:/altera/12.1/nios2eds/bin/gnu/h-i686-mingw32/bin/../lib/gcc/nios2-elf/4.1.2/../../../../nios2-elf/lib/mno-hw-mul\libc.a(lib_a-s_isinfd.o)
                0x00008980                __isinfd
 .text          0x000089c0       0x30 c:/altera/12.1/nios2eds/bin/gnu/h-i686-mingw32/bin/../lib/gcc/nios2-elf/4.1.2/../../../../nios2-elf/lib/mno-hw-mul\libc.a(lib_a-s_isnand.o)
                0x000089c0                __isnand
 .text          0x000089f0       0x70 c:/altera/12.1/nios2eds/bin/gnu/h-i686-mingw32/bin/../lib/gcc/nios2-elf/4.1.2/../../../../nios2-elf/lib/mno-hw-mul\libc.a(lib_a-sbrkr.o)
                0x000089f0                _sbrk_r
 .text          0x00008a60      0x14c c:/altera/12.1/nios2eds/bin/gnu/h-i686-mingw32/bin/../lib/gcc/nios2-elf/4.1.2/../../../../nios2-elf/lib/mno-hw-mul\libc.a(lib_a-stdio.o)
                0x00008a60                __sclose
                0x00008a68                __sseek
                0x00008ad0                __swrite
                0x00008b4c                __sread
 .text          0x00008bac       0xbc c:/altera/12.1/nios2eds/bin/gnu/h-i686-mingw32/bin/../lib/gcc/nios2-elf/4.1.2/../../../../nios2-elf/lib/mno-hw-mul\libc.a(lib_a-strcmp.o)
                0x00008bac                strcmp
 .text          0x00008c68       0x78 c:/altera/12.1/nios2eds/bin/gnu/h-i686-mingw32/bin/../lib/gcc/nios2-elf/4.1.2/../../../../nios2-elf/lib/mno-hw-mul\libc.a(lib_a-writer.o)
                0x00008c68                _write_r
 .text          0x00008ce0       0xc8 c:/altera/12.1/nios2eds/bin/gnu/h-i686-mingw32/bin/../lib/gcc/nios2-elf/4.1.2/../../../../nios2-elf/lib/mno-hw-mul\libc.a(lib_a-callocr.o)
                0x00008ce0                _calloc_r
 .text          0x00008da8       0x70 c:/altera/12.1/nios2eds/bin/gnu/h-i686-mingw32/bin/../lib/gcc/nios2-elf/4.1.2/../../../../nios2-elf/lib/mno-hw-mul\libc.a(lib_a-closer.o)
                0x00008da8                _close_r
 .text          0x00008e18      0x124 c:/altera/12.1/nios2eds/bin/gnu/h-i686-mingw32/bin/../lib/gcc/nios2-elf/4.1.2/../../../../nios2-elf/lib/mno-hw-mul\libc.a(lib_a-fclose.o)
                0x00008e18                _fclose_r
                0x00008f28                fclose
 .text          0x00008f3c       0x74 c:/altera/12.1/nios2eds/bin/gnu/h-i686-mingw32/bin/../lib/gcc/nios2-elf/4.1.2/../../../../nios2-elf/lib/mno-hw-mul\libc.a(lib_a-fstatr.o)
                0x00008f3c                _fstat_r
 .text          0x00008fb0        0x0 c:/altera/12.1/nios2eds/bin/gnu/h-i686-mingw32/bin/../lib/gcc/nios2-elf/4.1.2/../../../../nios2-elf/lib/mno-hw-mul\libc.a(lib_a-int_errno.o)
 .text          0x00008fb0       0x70 c:/altera/12.1/nios2eds/bin/gnu/h-i686-mingw32/bin/../lib/gcc/nios2-elf/4.1.2/../../../../nios2-elf/lib/mno-hw-mul\libc.a(lib_a-isattyr.o)
                0x00008fb0                _isatty_r
 .text          0x00009020       0x78 c:/altera/12.1/nios2eds/bin/gnu/h-i686-mingw32/bin/../lib/gcc/nios2-elf/4.1.2/../../../../nios2-elf/lib/mno-hw-mul\libc.a(lib_a-lseekr.o)
                0x00009020                _lseek_r
 .text          0x00009098       0x78 c:/altera/12.1/nios2eds/bin/gnu/h-i686-mingw32/bin/../lib/gcc/nios2-elf/4.1.2/../../../../nios2-elf/lib/mno-hw-mul\libc.a(lib_a-readr.o)
                0x00009098                _read_r
 .text          0x00009110      0x66c c:/altera/12.1/nios2eds/bin/gnu/h-i686-mingw32/bin/../lib/gcc/nios2-elf/4.1.2/mno-hw-mul\libgcc.a(_udivdi3.o)
                0x00009110                __udivdi3
 .text          0x0000977c      0x660 c:/altera/12.1/nios2eds/bin/gnu/h-i686-mingw32/bin/../lib/gcc/nios2-elf/4.1.2/mno-hw-mul\libgcc.a(_umoddi3.o)
                0x0000977c                __umoddi3
 .text          0x00009ddc      0x504 c:/altera/12.1/nios2eds/bin/gnu/h-i686-mingw32/bin/../lib/gcc/nios2-elf/4.1.2/mno-hw-mul\libgcc.a(_addsub_df.o)
                0x0000a1ec                __subdf3
                0x0000a26c                __adddf3
 .text          0x0000a2e0      0x3c4 c:/altera/12.1/nios2eds/bin/gnu/h-i686-mingw32/bin/../lib/gcc/nios2-elf/4.1.2/mno-hw-mul\libgcc.a(_mul_df.o)
                0x0000a2e0                __muldf3
 .text          0x0000a6a4      0x258 c:/altera/12.1/nios2eds/bin/gnu/h-i686-mingw32/bin/../lib/gcc/nios2-elf/4.1.2/mno-hw-mul\libgcc.a(_div_df.o)
                0x0000a6a4                __divdf3
 .text          0x0000a8fc       0x88 c:/altera/12.1/nios2eds/bin/gnu/h-i686-mingw32/bin/../lib/gcc/nios2-elf/4.1.2/mno-hw-mul\libgcc.a(_eq_df.o)
                0x0000a8fc                __eqdf2
 .text          0x0000a984       0x88 c:/altera/12.1/nios2eds/bin/gnu/h-i686-mingw32/bin/../lib/gcc/nios2-elf/4.1.2/mno-hw-mul\libgcc.a(_ne_df.o)
                0x0000a984                __nedf2
 .text          0x0000aa0c       0x88 c:/altera/12.1/nios2eds/bin/gnu/h-i686-mingw32/bin/../lib/gcc/nios2-elf/4.1.2/mno-hw-mul\libgcc.a(_gt_df.o)
                0x0000aa0c                __gtdf2
 .text          0x0000aa94       0x88 c:/altera/12.1/nios2eds/bin/gnu/h-i686-mingw32/bin/../lib/gcc/nios2-elf/4.1.2/mno-hw-mul\libgcc.a(_ge_df.o)
                0x0000aa94                __gedf2
 .text          0x0000ab1c       0x88 c:/altera/12.1/nios2eds/bin/gnu/h-i686-mingw32/bin/../lib/gcc/nios2-elf/4.1.2/mno-hw-mul\libgcc.a(_lt_df.o)
                0x0000ab1c                __ltdf2
 .text          0x0000aba4       0xf8 c:/altera/12.1/nios2eds/bin/gnu/h-i686-mingw32/bin/../lib/gcc/nios2-elf/4.1.2/mno-hw-mul\libgcc.a(_si_to_df.o)
                0x0000aba4                __floatsidf
 .text          0x0000ac9c       0xd8 c:/altera/12.1/nios2eds/bin/gnu/h-i686-mingw32/bin/../lib/gcc/nios2-elf/4.1.2/mno-hw-mul\libgcc.a(_df_to_si.o)
                0x0000ac9c                __fixdfsi
 .text          0x0000ad74        0x0 c:/altera/12.1/nios2eds/bin/gnu/h-i686-mingw32/bin/../lib/gcc/nios2-elf/4.1.2/mno-hw-mul\libgcc.a(_thenan_df.o)
 .text          0x0000ad74      0x194 c:/altera/12.1/nios2eds/bin/gnu/h-i686-mingw32/bin/../lib/gcc/nios2-elf/4.1.2/mno-hw-mul\libgcc.a(_usi_to_df.o)
                0x0000ad74                __floatunsidf
 .text          0x0000af08      0x124 c:/altera/12.1/nios2eds/bin/gnu/h-i686-mingw32/bin/../lib/gcc/nios2-elf/4.1.2/mno-hw-mul\libgcc.a(_muldi3.o)
                0x0000af08                __muldi3
 .text          0x0000b02c        0x0 c:/altera/12.1/nios2eds/bin/gnu/h-i686-mingw32/bin/../lib/gcc/nios2-elf/4.1.2/mno-hw-mul\libgcc.a(_clz.o)
 .text          0x0000b02c       0x80 c:/altera/12.1/nios2eds/bin/gnu/h-i686-mingw32/bin/../lib/gcc/nios2-elf/4.1.2/mno-hw-mul\libgcc.a(_clzsi2.o)
                0x0000b02c                __clzsi2
 .text          0x0000b0ac      0x314 c:/altera/12.1/nios2eds/bin/gnu/h-i686-mingw32/bin/../lib/gcc/nios2-elf/4.1.2/mno-hw-mul\libgcc.a(_pack_df.o)
                0x0000b0ac                __pack_d
 .text          0x0000b3c0      0x138 c:/altera/12.1/nios2eds/bin/gnu/h-i686-mingw32/bin/../lib/gcc/nios2-elf/4.1.2/mno-hw-mul\libgcc.a(_unpack_df.o)
                0x0000b3c0                __unpack_d
 .text          0x0000b4f8       0xc8 c:/altera/12.1/nios2eds/bin/gnu/h-i686-mingw32/bin/../lib/gcc/nios2-elf/4.1.2/mno-hw-mul\libgcc.a(_fpcmp_parts_df.o)
                0x0000b4f8                __fpcmp_parts_d
 .text          0x0000b5c0      0x160 C:/work/fpga/nios2_camera_sdram_lcd/prj_eclipse/nios2_camera_sdram_lcd_bsp/\libhal_bsp.a(alt_close.o)
                0x0000b5c0                close
 .text          0x0000b720       0x2c C:/work/fpga/nios2_camera_sdram_lcd/prj_eclipse/nios2_camera_sdram_lcd_bsp/\libhal_bsp.a(alt_dev.o)
 .text          0x0000b74c        0x0 C:/work/fpga/nios2_camera_sdram_lcd/prj_eclipse/nios2_camera_sdram_lcd_bsp/\libhal_bsp.a(alt_errno.o)
 .text          0x0000b74c      0x138 C:/work/fpga/nios2_camera_sdram_lcd/prj_eclipse/nios2_camera_sdram_lcd_bsp/\libhal_bsp.a(alt_fstat.o)
                0x0000b74c                fstat
 .text          0x0000b884      0x1d4 C:/work/fpga/nios2_camera_sdram_lcd/prj_eclipse/nios2_camera_sdram_lcd_bsp/\libhal_bsp.a(alt_iic.o)
                0x0000b884                alt_ic_isr_register
                0x0000b8d4                alt_ic_irq_enable
                0x0000b970                alt_ic_irq_disable
                0x0000ba10                alt_ic_irq_enabled
 .text          0x0000ba58       0xf8 C:/work/fpga/nios2_camera_sdram_lcd/prj_eclipse/nios2_camera_sdram_lcd_bsp/\libhal_bsp.a(alt_iic_isr_register.o)
                0x0000ba58                alt_iic_isr_register
 .text          0x0000bb50        0x0 C:/work/fpga/nios2_camera_sdram_lcd/prj_eclipse/nios2_camera_sdram_lcd_bsp/\libhal_bsp.a(alt_irq_entry.o)
 .text          0x0000bb50        0x0 C:/work/fpga/nios2_camera_sdram_lcd/prj_eclipse/nios2_camera_sdram_lcd_bsp/\libhal_bsp.a(alt_irq_handler.o)
 .text          0x0000bb50        0x0 C:/work/fpga/nios2_camera_sdram_lcd/prj_eclipse/nios2_camera_sdram_lcd_bsp/\libhal_bsp.a(alt_irq_vars.o)
 .text          0x0000bb50      0x124 C:/work/fpga/nios2_camera_sdram_lcd/prj_eclipse/nios2_camera_sdram_lcd_bsp/\libhal_bsp.a(alt_isatty.o)
                0x0000bb50                isatty
 .text          0x0000bc74       0xec C:/work/fpga/nios2_camera_sdram_lcd/prj_eclipse/nios2_camera_sdram_lcd_bsp/\libhal_bsp.a(alt_load.o)
                0x0000bc74                alt_load
 .text          0x0000bd60      0x154 C:/work/fpga/nios2_camera_sdram_lcd/prj_eclipse/nios2_camera_sdram_lcd_bsp/\libhal_bsp.a(alt_lseek.o)
                0x0000bd60                lseek
 .text          0x0000beb4       0x6c C:/work/fpga/nios2_camera_sdram_lcd/prj_eclipse/nios2_camera_sdram_lcd_bsp/\libhal_bsp.a(alt_main.o)
                0x0000beb4                alt_main
 .text          0x0000bf20       0x40 C:/work/fpga/nios2_camera_sdram_lcd/prj_eclipse/nios2_camera_sdram_lcd_bsp/\libhal_bsp.a(alt_malloc_lock.o)
                0x0000bf20                __malloc_lock
                0x0000bf40                __malloc_unlock
 .text          0x0000bf60      0x184 C:/work/fpga/nios2_camera_sdram_lcd/prj_eclipse/nios2_camera_sdram_lcd_bsp/\libhal_bsp.a(alt_read.o)
                0x0000bf60                read
 .text          0x0000c0e4       0x78 C:/work/fpga/nios2_camera_sdram_lcd/prj_eclipse/nios2_camera_sdram_lcd_bsp/\libhal_bsp.a(alt_release_fd.o)
                0x0000c0e4                alt_release_fd
 .text          0x0000c15c       0xbc C:/work/fpga/nios2_camera_sdram_lcd/prj_eclipse/nios2_camera_sdram_lcd_bsp/\libhal_bsp.a(alt_sbrk.o)
                0x0000c15c                sbrk
 .text          0x0000c218       0x30 C:/work/fpga/nios2_camera_sdram_lcd/prj_eclipse/nios2_camera_sdram_lcd_bsp/\libhal_bsp.a(alt_usleep.o)
                0x0000c218                usleep
 .text          0x0000c248      0x184 C:/work/fpga/nios2_camera_sdram_lcd/prj_eclipse/nios2_camera_sdram_lcd_bsp/\libhal_bsp.a(alt_write.o)
                0x0000c248                write
 .text          0x0000c3cc       0xb0 C:/work/fpga/nios2_camera_sdram_lcd/prj_eclipse/nios2_camera_sdram_lcd_bsp/\libhal_bsp.a(alt_sys_init.o)
                0x0000c3cc                alt_irq_init
                0x0000c400                alt_sys_init
 .text          0x0000c47c      0x148 C:/work/fpga/nios2_camera_sdram_lcd/prj_eclipse/nios2_camera_sdram_lcd_bsp/\libhal_bsp.a(altera_avalon_jtag_uart_fd.o)
                0x0000c47c                altera_avalon_jtag_uart_read_fd
                0x0000c4d4                altera_avalon_jtag_uart_write_fd
                0x0000c52c                altera_avalon_jtag_uart_close_fd
                0x0000c574                altera_avalon_jtag_uart_ioctl_fd
 .text          0x0000c5c4      0x40c C:/work/fpga/nios2_camera_sdram_lcd/prj_eclipse/nios2_camera_sdram_lcd_bsp/\libhal_bsp.a(altera_avalon_jtag_uart_init.o)
                0x0000c5c4                altera_avalon_jtag_uart_init
                0x0000c95c                altera_avalon_jtag_uart_close
 .text          0x0000c9d0       0xf4 C:/work/fpga/nios2_camera_sdram_lcd/prj_eclipse/nios2_camera_sdram_lcd_bsp/\libhal_bsp.a(altera_avalon_jtag_uart_ioctl.o)
                0x0000c9d0                altera_avalon_jtag_uart_ioctl
 .text          0x0000cac4      0x224 C:/work/fpga/nios2_camera_sdram_lcd/prj_eclipse/nios2_camera_sdram_lcd_bsp/\libhal_bsp.a(altera_avalon_jtag_uart_read.o)
                0x0000cac4                altera_avalon_jtag_uart_read
 .text          0x0000cce8      0x240 C:/work/fpga/nios2_camera_sdram_lcd/prj_eclipse/nios2_camera_sdram_lcd_bsp/\libhal_bsp.a(altera_avalon_jtag_uart_write.o)
                0x0000cce8                altera_avalon_jtag_uart_write
 .text          0x0000cf28      0x154 C:/work/fpga/nios2_camera_sdram_lcd/prj_eclipse/nios2_camera_sdram_lcd_bsp/\libhal_bsp.a(alt_alarm_start.o)
                0x0000cf28                alt_alarm_start
 .text          0x0000d07c      0x15c C:/work/fpga/nios2_camera_sdram_lcd/prj_eclipse/nios2_camera_sdram_lcd_bsp/\libhal_bsp.a(alt_busy_sleep.o)
                0x0000d07c                alt_busy_sleep
 .text          0x0000d1d8       0x1c C:/work/fpga/nios2_camera_sdram_lcd/prj_eclipse/nios2_camera_sdram_lcd_bsp/\libhal_bsp.a(alt_dcache_flush_all.o)
                0x0000d1d8                alt_dcache_flush_all
 .text          0x0000d1f4      0x114 C:/work/fpga/nios2_camera_sdram_lcd/prj_eclipse/nios2_camera_sdram_lcd_bsp/\libhal_bsp.a(alt_dev_llist_insert.o)
                0x0000d1f4                alt_dev_llist_insert
 .text          0x0000d308       0x64 C:/work/fpga/nios2_camera_sdram_lcd/prj_eclipse/nios2_camera_sdram_lcd_bsp/\libhal_bsp.a(alt_do_ctors.o)
                0x0000d308                _do_ctors
 .text          0x0000d36c       0x64 C:/work/fpga/nios2_camera_sdram_lcd/prj_eclipse/nios2_camera_sdram_lcd_bsp/\libhal_bsp.a(alt_do_dtors.o)
                0x0000d36c                _do_dtors
 .text          0x0000d3d0        0x0 C:/work/fpga/nios2_camera_sdram_lcd/prj_eclipse/nios2_camera_sdram_lcd_bsp/\libhal_bsp.a(alt_exception_entry.o)
 .text          0x0000d3d0       0x1c C:/work/fpga/nios2_camera_sdram_lcd/prj_eclipse/nios2_camera_sdram_lcd_bsp/\libhal_bsp.a(alt_icache_flush_all.o)
                0x0000d3d0                alt_icache_flush_all
 .text          0x0000d3ec      0x150 C:/work/fpga/nios2_camera_sdram_lcd/prj_eclipse/nios2_camera_sdram_lcd_bsp/\libhal_bsp.a(alt_io_redirect.o)
                0x0000d4c4                alt_io_redirect
 .text          0x0000d53c      0x2e4 C:/work/fpga/nios2_camera_sdram_lcd/prj_eclipse/nios2_camera_sdram_lcd_bsp/\libhal_bsp.a(alt_open.o)
                0x0000d634                open
 .text          0x0000d820      0x1a4 C:/work/fpga/nios2_camera_sdram_lcd/prj_eclipse/nios2_camera_sdram_lcd_bsp/\libhal_bsp.a(alt_tick.o)
                0x0000d820                alt_alarm_stop
                0x0000d8b8                alt_tick
 .text          0x0000d9c4       0x20 C:/work/fpga/nios2_camera_sdram_lcd/prj_eclipse/nios2_camera_sdram_lcd_bsp/\libhal_bsp.a(altera_nios2_qsys_irq.o)
                0x0000d9c4                altera_nios2_qsys_irq_init
 .text          0x0000d9e4       0x94 C:/work/fpga/nios2_camera_sdram_lcd/prj_eclipse/nios2_camera_sdram_lcd_bsp/\libhal_bsp.a(alt_find_dev.o)
                0x0000d9e4                alt_find_dev
 .text          0x0000da78      0x120 C:/work/fpga/nios2_camera_sdram_lcd/prj_eclipse/nios2_camera_sdram_lcd_bsp/\libhal_bsp.a(alt_find_file.o)
                0x0000da78                alt_find_file
 .text          0x0000db98       0xd0 C:/work/fpga/nios2_camera_sdram_lcd/prj_eclipse/nios2_camera_sdram_lcd_bsp/\libhal_bsp.a(alt_get_fd.o)
                0x0000db98                alt_get_fd
 .text          0x0000dc68       0x14 c:/altera/12.1/nios2eds/bin/gnu/h-i686-mingw32/bin/../lib/gcc/nios2-elf/4.1.2/../../../../nios2-elf/lib/mno-hw-mul\libc.a(lib_a-atexit.o)
                0x0000dc68                atexit
 .text          0x0000dc7c       0x38 c:/altera/12.1/nios2eds/bin/gnu/h-i686-mingw32/bin/../lib/gcc/nios2-elf/4.1.2/../../../../nios2-elf/lib/mno-hw-mul\libc.a(lib_a-exit.o)
                0x0000dc7c                exit
 .text          0x0000dcb4       0x74 c:/altera/12.1/nios2eds/bin/gnu/h-i686-mingw32/bin/../lib/gcc/nios2-elf/4.1.2/../../../../nios2-elf/lib/mno-hw-mul\libc.a(lib_a-memcmp.o)
                0x0000dcb4                memcmp
 .text          0x0000dd28      0x134 c:/altera/12.1/nios2eds/bin/gnu/h-i686-mingw32/bin/../lib/gcc/nios2-elf/4.1.2/../../../../nios2-elf/lib/mno-hw-mul\libc.a(lib_a-__atexit.o)
                0x0000dd28                __register_exitproc
 .text          0x0000de5c      0x1b4 c:/altera/12.1/nios2eds/bin/gnu/h-i686-mingw32/bin/../lib/gcc/nios2-elf/4.1.2/../../../../nios2-elf/lib/mno-hw-mul\libc.a(lib_a-__call_atexit.o)
                0x0000de60                __call_exitprocs
 .text          0x0000e010       0x60 C:/work/fpga/nios2_camera_sdram_lcd/prj_eclipse/nios2_camera_sdram_lcd_bsp/\libhal_bsp.a(alt_exit.o)
                0x0000e050                _exit
 *(.gnu.warning.*)
 *(.fini)
                0x0000e070                PROVIDE (__etext, ABSOLUTE (.))
                0x0000e070                PROVIDE (_etext, ABSOLUTE (.))
                0x0000e070                PROVIDE (etext, ABSOLUTE (.))
 *(.eh_frame_hdr)
                0x0000e070                . = ALIGN (0x4)
                0x0000e070                PROVIDE (__preinit_array_start, ABSOLUTE (.))
 *(.preinit_array)
                0x0000e070                PROVIDE (__preinit_array_end, ABSOLUTE (.))
                0x0000e070                PROVIDE (__init_array_start, ABSOLUTE (.))
 *(.init_array)
                0x0000e070                PROVIDE (__init_array_end, ABSOLUTE (.))
                0x0000e070                PROVIDE (__fini_array_start, ABSOLUTE (.))
 *(.fini_array)
                0x0000e070                PROVIDE (__fini_array_end, ABSOLUTE (.))
 *(.eh_frame)
 *(.gcc_except_table)
 *(.dynamic)
                0x0000e070                PROVIDE (__CTOR_LIST__, ABSOLUTE (.))
 *(.ctors)
 *(SORT(.ctors.*))
 .ctors.65535   0x0000e070        0x4 c:/altera/12.1/nios2eds/bin/gnu/h-i686-mingw32/bin/../lib/gcc/nios2-elf/4.1.2/../../../../nios2-elf/lib/mno-hw-mul\libc.a(lib_a-__call_atexit.o)
                0x0000e074                PROVIDE (__CTOR_END__, ABSOLUTE (.))
                0x0000e074                PROVIDE (__DTOR_LIST__, ABSOLUTE (.))
 *(.dtors)
 *(SORT(.dtors.*))
                0x0000e074                PROVIDE (__DTOR_END__, ABSOLUTE (.))
 *(.jcr)
                0x0000e074                . = ALIGN (0x4)

.rodata         0x0000e074      0x4b0
                0x0000e074                PROVIDE (__ram_rodata_start, ABSOLUTE (.))
                0x0000e074                . = ALIGN (0x4)
 *(.rodata .rodata.* .gnu.linkonce.r.*)
 .rodata        0x0000e074      0x134 obj/default/hello_world.o
 .rodata        0x0000e1a8       0x40 obj/default/ov5640_drv.o
 .rodata.str1.4
                0x0000e1e8        0x2 c:/altera/12.1/nios2eds/bin/gnu/h-i686-mingw32/bin/../lib/gcc/nios2-elf/4.1.2/../../../../nios2-elf/lib/mno-hw-mul\libc.a(lib_a-puts.o)
                                  0x4 (size before relaxing)
 *fill*         0x0000e1ea        0x2 00
 .rodata.str1.4
                0x0000e1ec       0x5e c:/altera/12.1/nios2eds/bin/gnu/h-i686-mingw32/bin/../lib/gcc/nios2-elf/4.1.2/../../../../nios2-elf/lib/mno-hw-mul\libc.a(lib_a-vfprintf.o)
                                 0x60 (size before relaxing)
 .rodata        0x0000e24a       0x20 c:/altera/12.1/nios2eds/bin/gnu/h-i686-mingw32/bin/../lib/gcc/nios2-elf/4.1.2/../../../../nios2-elf/lib/mno-hw-mul\libc.a(lib_a-vfprintf.o)
 *fill*         0x0000e26a        0x2 00
 .rodata.str1.4
                0x0000e26c       0x10 c:/altera/12.1/nios2eds/bin/gnu/h-i686-mingw32/bin/../lib/gcc/nios2-elf/4.1.2/../../../../nios2-elf/lib/mno-hw-mul\libc.a(lib_a-dtoa.o)
                                 0x14 (size before relaxing)
 .rodata.str1.4
                0x0000e27c        0x2 c:/altera/12.1/nios2eds/bin/gnu/h-i686-mingw32/bin/../lib/gcc/nios2-elf/4.1.2/../../../../nios2-elf/lib/mno-hw-mul\libc.a(lib_a-impure.o)
                                  0x4 (size before relaxing)
 *fill*         0x0000e27e        0x2 00
 .rodata.str1.4
                0x0000e280       0x10 c:/altera/12.1/nios2eds/bin/gnu/h-i686-mingw32/bin/../lib/gcc/nios2-elf/4.1.2/../../../../nios2-elf/lib/mno-hw-mul\libc.a(lib_a-locale.o)
                                 0x18 (size before relaxing)
 .rodata        0x0000e290       0x30 c:/altera/12.1/nios2eds/bin/gnu/h-i686-mingw32/bin/../lib/gcc/nios2-elf/4.1.2/../../../../nios2-elf/lib/mno-hw-mul\libc.a(lib_a-locale.o)
 .rodata        0x0000e2c0      0x124 c:/altera/12.1/nios2eds/bin/gnu/h-i686-mingw32/bin/../lib/gcc/nios2-elf/4.1.2/../../../../nios2-elf/lib/mno-hw-mul\libc.a(lib_a-mprec.o)
                0x0000e2c0                __mprec_tens
                0x0000e388                __mprec_bigtens
                0x0000e3b0                __mprec_tinytens
 .rodata        0x0000e3e4       0x14 c:/altera/12.1/nios2eds/bin/gnu/h-i686-mingw32/bin/../lib/gcc/nios2-elf/4.1.2/mno-hw-mul\libgcc.a(_thenan_df.o)
                0x0000e3e4                __thenan_df
 .rodata        0x0000e3f8      0x100 c:/altera/12.1/nios2eds/bin/gnu/h-i686-mingw32/bin/../lib/gcc/nios2-elf/4.1.2/mno-hw-mul\libgcc.a(_clz.o)
                0x0000e3f8                __clz_tab
 .rodata        0x0000e4f8        0xc C:/work/fpga/nios2_camera_sdram_lcd/prj_eclipse/nios2_camera_sdram_lcd_bsp/\libhal_bsp.a(alt_dev.o)
 .rodata        0x0000e504       0x10 C:/work/fpga/nios2_camera_sdram_lcd/prj_eclipse/nios2_camera_sdram_lcd_bsp/\libhal_bsp.a(alt_main.o)
 .rodata        0x0000e514       0x10 C:/work/fpga/nios2_camera_sdram_lcd/prj_eclipse/nios2_camera_sdram_lcd_bsp/\libhal_bsp.a(alt_sys_init.o)
 *(.rodata1)
                0x0000e524                . = ALIGN (0x4)
                0x0000e524                PROVIDE (__ram_rodata_end, ABSOLUTE (.))
                0x0000e074                PROVIDE (__flash_rodata_start, LOADADDR (.rodata))

.rwdata         0x0000e524     0x1a64 load address 0x0000ff88
                0x0000e524                PROVIDE (__ram_rwdata_start, ABSOLUTE (.))
                0x0000e524                . = ALIGN (0x4)
 *(.got.plt)
 *(.got)
 *(.data1)
 *(.data .data.* .gnu.linkonce.d.*)
 .data          0x0000e524        0x0 C:/work/fpga/nios2_camera_sdram_lcd/prj_eclipse/nios2_camera_sdram_lcd_bsp//obj/HAL/src/crt0.o
 .data          0x0000e524        0x0 obj/default/avalon_isp_algo_2a.o
 .data          0x0000e524        0x0 obj/default/hello_world.o
 .data          0x0000e524        0x0 obj/default/ov5640_drv.o
 .data          0x0000e524        0x0 c:/altera/12.1/nios2eds/bin/gnu/h-i686-mingw32/bin/../lib/gcc/nios2-elf/4.1.2/mno-hw-mul\libgcc.a(lib2-divmod.o)
 .data          0x0000e524        0x0 c:/altera/12.1/nios2eds/bin/gnu/h-i686-mingw32/bin/../lib/gcc/nios2-elf/4.1.2/mno-hw-mul\libgcc.a(lib2-mul.o)
 .data          0x0000e524        0x0 c:/altera/12.1/nios2eds/bin/gnu/h-i686-mingw32/bin/../lib/gcc/nios2-elf/4.1.2/../../../../nios2-elf/lib/mno-hw-mul\libc.a(lib_a-printf.o)
 .data          0x0000e524        0x0 c:/altera/12.1/nios2eds/bin/gnu/h-i686-mingw32/bin/../lib/gcc/nios2-elf/4.1.2/../../../../nios2-elf/lib/mno-hw-mul\libc.a(lib_a-puts.o)
 .data          0x0000e524        0x0 c:/altera/12.1/nios2eds/bin/gnu/h-i686-mingw32/bin/../lib/gcc/nios2-elf/4.1.2/../../../../nios2-elf/lib/mno-hw-mul\libc.a(lib_a-strlen.o)
 .data          0x0000e524        0x0 c:/altera/12.1/nios2eds/bin/gnu/h-i686-mingw32/bin/../lib/gcc/nios2-elf/4.1.2/../../../../nios2-elf/lib/mno-hw-mul\libc.a(lib_a-vfprintf.o)
 .data          0x0000e524        0x0 c:/altera/12.1/nios2eds/bin/gnu/h-i686-mingw32/bin/../lib/gcc/nios2-elf/4.1.2/../../../../nios2-elf/lib/mno-hw-mul\libc.a(lib_a-wsetup.o)
 .data          0x0000e524        0x0 c:/altera/12.1/nios2eds/bin/gnu/h-i686-mingw32/bin/../lib/gcc/nios2-elf/4.1.2/../../../../nios2-elf/lib/mno-hw-mul\libc.a(lib_a-dtoa.o)
 .data          0x0000e524        0x0 c:/altera/12.1/nios2eds/bin/gnu/h-i686-mingw32/bin/../lib/gcc/nios2-elf/4.1.2/../../../../nios2-elf/lib/mno-hw-mul\libc.a(lib_a-fflush.o)
 .data          0x0000e524        0x0 c:/altera/12.1/nios2eds/bin/gnu/h-i686-mingw32/bin/../lib/gcc/nios2-elf/4.1.2/../../../../nios2-elf/lib/mno-hw-mul\libc.a(lib_a-findfp.o)
 .data          0x0000e524        0x0 c:/altera/12.1/nios2eds/bin/gnu/h-i686-mingw32/bin/../lib/gcc/nios2-elf/4.1.2/../../../../nios2-elf/lib/mno-hw-mul\libc.a(lib_a-freer.o)
 .data          0x0000e524        0x0 c:/altera/12.1/nios2eds/bin/gnu/h-i686-mingw32/bin/../lib/gcc/nios2-elf/4.1.2/../../../../nios2-elf/lib/mno-hw-mul\libc.a(lib_a-fvwrite.o)
 .data          0x0000e524        0x0 c:/altera/12.1/nios2eds/bin/gnu/h-i686-mingw32/bin/../lib/gcc/nios2-elf/4.1.2/../../../../nios2-elf/lib/mno-hw-mul\libc.a(lib_a-fwalk.o)
 .data          0x0000e524      0x400 c:/altera/12.1/nios2eds/bin/gnu/h-i686-mingw32/bin/../lib/gcc/nios2-elf/4.1.2/../../../../nios2-elf/lib/mno-hw-mul\libc.a(lib_a-impure.o)
 .data          0x0000e924        0xc c:/altera/12.1/nios2eds/bin/gnu/h-i686-mingw32/bin/../lib/gcc/nios2-elf/4.1.2/../../../../nios2-elf/lib/mno-hw-mul\libc.a(lib_a-locale.o)
                0x0000e924                __lc_ctype
 .data          0x0000e930        0x0 c:/altera/12.1/nios2eds/bin/gnu/h-i686-mingw32/bin/../lib/gcc/nios2-elf/4.1.2/../../../../nios2-elf/lib/mno-hw-mul\libc.a(lib_a-makebuf.o)
 .data          0x0000e930      0x408 c:/altera/12.1/nios2eds/bin/gnu/h-i686-mingw32/bin/../lib/gcc/nios2-elf/4.1.2/../../../../nios2-elf/lib/mno-hw-mul\libc.a(lib_a-mallocr.o)
                0x0000e930                __malloc_av_
 .data          0x0000ed38        0x0 c:/altera/12.1/nios2eds/bin/gnu/h-i686-mingw32/bin/../lib/gcc/nios2-elf/4.1.2/../../../../nios2-elf/lib/mno-hw-mul\libc.a(lib_a-memchr.o)
 .data          0x0000ed38        0x0 c:/altera/12.1/nios2eds/bin/gnu/h-i686-mingw32/bin/../lib/gcc/nios2-elf/4.1.2/../../../../nios2-elf/lib/mno-hw-mul\libc.a(lib_a-memcpy.o)
 .data          0x0000ed38        0x0 c:/altera/12.1/nios2eds/bin/gnu/h-i686-mingw32/bin/../lib/gcc/nios2-elf/4.1.2/../../../../nios2-elf/lib/mno-hw-mul\libc.a(lib_a-memmove.o)
 .data          0x0000ed38        0x0 c:/altera/12.1/nios2eds/bin/gnu/h-i686-mingw32/bin/../lib/gcc/nios2-elf/4.1.2/../../../../nios2-elf/lib/mno-hw-mul\libc.a(lib_a-memset.o)
 .data          0x0000ed38        0x0 c:/altera/12.1/nios2eds/bin/gnu/h-i686-mingw32/bin/../lib/gcc/nios2-elf/4.1.2/../../../../nios2-elf/lib/mno-hw-mul\libc.a(lib_a-mprec.o)
 .data          0x0000ed38        0x0 c:/altera/12.1/nios2eds/bin/gnu/h-i686-mingw32/bin/../lib/gcc/nios2-elf/4.1.2/../../../../nios2-elf/lib/mno-hw-mul\libc.a(lib_a-reallocr.o)
 .data          0x0000ed38        0x0 c:/altera/12.1/nios2eds/bin/gnu/h-i686-mingw32/bin/../lib/gcc/nios2-elf/4.1.2/../../../../nios2-elf/lib/mno-hw-mul\libc.a(lib_a-s_isinfd.o)
 .data          0x0000ed38        0x0 c:/altera/12.1/nios2eds/bin/gnu/h-i686-mingw32/bin/../lib/gcc/nios2-elf/4.1.2/../../../../nios2-elf/lib/mno-hw-mul\libc.a(lib_a-s_isnand.o)
 .data          0x0000ed38        0x0 c:/altera/12.1/nios2eds/bin/gnu/h-i686-mingw32/bin/../lib/gcc/nios2-elf/4.1.2/../../../../nios2-elf/lib/mno-hw-mul\libc.a(lib_a-sbrkr.o)
 .data          0x0000ed38        0x0 c:/altera/12.1/nios2eds/bin/gnu/h-i686-mingw32/bin/../lib/gcc/nios2-elf/4.1.2/../../../../nios2-elf/lib/mno-hw-mul\libc.a(lib_a-stdio.o)
 .data          0x0000ed38        0x0 c:/altera/12.1/nios2eds/bin/gnu/h-i686-mingw32/bin/../lib/gcc/nios2-elf/4.1.2/../../../../nios2-elf/lib/mno-hw-mul\libc.a(lib_a-strcmp.o)
 .data          0x0000ed38        0x0 c:/altera/12.1/nios2eds/bin/gnu/h-i686-mingw32/bin/../lib/gcc/nios2-elf/4.1.2/../../../../nios2-elf/lib/mno-hw-mul\libc.a(lib_a-writer.o)
 .data          0x0000ed38        0x0 c:/altera/12.1/nios2eds/bin/gnu/h-i686-mingw32/bin/../lib/gcc/nios2-elf/4.1.2/../../../../nios2-elf/lib/mno-hw-mul\libc.a(lib_a-callocr.o)
 .data          0x0000ed38        0x0 c:/altera/12.1/nios2eds/bin/gnu/h-i686-mingw32/bin/../lib/gcc/nios2-elf/4.1.2/../../../../nios2-elf/lib/mno-hw-mul\libc.a(lib_a-closer.o)
 .data          0x0000ed38        0x0 c:/altera/12.1/nios2eds/bin/gnu/h-i686-mingw32/bin/../lib/gcc/nios2-elf/4.1.2/../../../../nios2-elf/lib/mno-hw-mul\libc.a(lib_a-fclose.o)
 .data          0x0000ed38        0x0 c:/altera/12.1/nios2eds/bin/gnu/h-i686-mingw32/bin/../lib/gcc/nios2-elf/4.1.2/../../../../nios2-elf/lib/mno-hw-mul\libc.a(lib_a-fstatr.o)
 .data          0x0000ed38        0x0 c:/altera/12.1/nios2eds/bin/gnu/h-i686-mingw32/bin/../lib/gcc/nios2-elf/4.1.2/../../../../nios2-elf/lib/mno-hw-mul\libc.a(lib_a-int_errno.o)
 .data          0x0000ed38        0x0 c:/altera/12.1/nios2eds/bin/gnu/h-i686-mingw32/bin/../lib/gcc/nios2-elf/4.1.2/../../../../nios2-elf/lib/mno-hw-mul\libc.a(lib_a-isattyr.o)
 .data          0x0000ed38        0x0 c:/altera/12.1/nios2eds/bin/gnu/h-i686-mingw32/bin/../lib/gcc/nios2-elf/4.1.2/../../../../nios2-elf/lib/mno-hw-mul\libc.a(lib_a-lseekr.o)
 .data          0x0000ed38        0x0 c:/altera/12.1/nios2eds/bin/gnu/h-i686-mingw32/bin/../lib/gcc/nios2-elf/4.1.2/../../../../nios2-elf/lib/mno-hw-mul\libc.a(lib_a-readr.o)
 .data          0x0000ed38        0x0 c:/altera/12.1/nios2eds/bin/gnu/h-i686-mingw32/bin/../lib/gcc/nios2-elf/4.1.2/mno-hw-mul\libgcc.a(_udivdi3.o)
 .data          0x0000ed38        0x0 c:/altera/12.1/nios2eds/bin/gnu/h-i686-mingw32/bin/../lib/gcc/nios2-elf/4.1.2/mno-hw-mul\libgcc.a(_umoddi3.o)
 .data          0x0000ed38        0x0 c:/altera/12.1/nios2eds/bin/gnu/h-i686-mingw32/bin/../lib/gcc/nios2-elf/4.1.2/mno-hw-mul\libgcc.a(_addsub_df.o)
 .data          0x0000ed38        0x0 c:/altera/12.1/nios2eds/bin/gnu/h-i686-mingw32/bin/../lib/gcc/nios2-elf/4.1.2/mno-hw-mul\libgcc.a(_mul_df.o)
 .data          0x0000ed38        0x0 c:/altera/12.1/nios2eds/bin/gnu/h-i686-mingw32/bin/../lib/gcc/nios2-elf/4.1.2/mno-hw-mul\libgcc.a(_div_df.o)
 .data          0x0000ed38        0x0 c:/altera/12.1/nios2eds/bin/gnu/h-i686-mingw32/bin/../lib/gcc/nios2-elf/4.1.2/mno-hw-mul\libgcc.a(_eq_df.o)
 .data          0x0000ed38        0x0 c:/altera/12.1/nios2eds/bin/gnu/h-i686-mingw32/bin/../lib/gcc/nios2-elf/4.1.2/mno-hw-mul\libgcc.a(_ne_df.o)
 .data          0x0000ed38        0x0 c:/altera/12.1/nios2eds/bin/gnu/h-i686-mingw32/bin/../lib/gcc/nios2-elf/4.1.2/mno-hw-mul\libgcc.a(_gt_df.o)
 .data          0x0000ed38        0x0 c:/altera/12.1/nios2eds/bin/gnu/h-i686-mingw32/bin/../lib/gcc/nios2-elf/4.1.2/mno-hw-mul\libgcc.a(_ge_df.o)
 .data          0x0000ed38        0x0 c:/altera/12.1/nios2eds/bin/gnu/h-i686-mingw32/bin/../lib/gcc/nios2-elf/4.1.2/mno-hw-mul\libgcc.a(_lt_df.o)
 .data          0x0000ed38        0x0 c:/altera/12.1/nios2eds/bin/gnu/h-i686-mingw32/bin/../lib/gcc/nios2-elf/4.1.2/mno-hw-mul\libgcc.a(_si_to_df.o)
 .data          0x0000ed38        0x0 c:/altera/12.1/nios2eds/bin/gnu/h-i686-mingw32/bin/../lib/gcc/nios2-elf/4.1.2/mno-hw-mul\libgcc.a(_df_to_si.o)
 .data          0x0000ed38        0x0 c:/altera/12.1/nios2eds/bin/gnu/h-i686-mingw32/bin/../lib/gcc/nios2-elf/4.1.2/mno-hw-mul\libgcc.a(_thenan_df.o)
 .data          0x0000ed38        0x0 c:/altera/12.1/nios2eds/bin/gnu/h-i686-mingw32/bin/../lib/gcc/nios2-elf/4.1.2/mno-hw-mul\libgcc.a(_usi_to_df.o)
 .data          0x0000ed38        0x0 c:/altera/12.1/nios2eds/bin/gnu/h-i686-mingw32/bin/../lib/gcc/nios2-elf/4.1.2/mno-hw-mul\libgcc.a(_muldi3.o)
 .data          0x0000ed38        0x0 c:/altera/12.1/nios2eds/bin/gnu/h-i686-mingw32/bin/../lib/gcc/nios2-elf/4.1.2/mno-hw-mul\libgcc.a(_clz.o)
 .data          0x0000ed38        0x0 c:/altera/12.1/nios2eds/bin/gnu/h-i686-mingw32/bin/../lib/gcc/nios2-elf/4.1.2/mno-hw-mul\libgcc.a(_clzsi2.o)
 .data          0x0000ed38        0x0 c:/altera/12.1/nios2eds/bin/gnu/h-i686-mingw32/bin/../lib/gcc/nios2-elf/4.1.2/mno-hw-mul\libgcc.a(_pack_df.o)
 .data          0x0000ed38        0x0 c:/altera/12.1/nios2eds/bin/gnu/h-i686-mingw32/bin/../lib/gcc/nios2-elf/4.1.2/mno-hw-mul\libgcc.a(_unpack_df.o)
 .data          0x0000ed38        0x0 c:/altera/12.1/nios2eds/bin/gnu/h-i686-mingw32/bin/../lib/gcc/nios2-elf/4.1.2/mno-hw-mul\libgcc.a(_fpcmp_parts_df.o)
 .data          0x0000ed38        0x0 C:/work/fpga/nios2_camera_sdram_lcd/prj_eclipse/nios2_camera_sdram_lcd_bsp/\libhal_bsp.a(alt_close.o)
 .data          0x0000ed38      0x1a8 C:/work/fpga/nios2_camera_sdram_lcd/prj_eclipse/nios2_camera_sdram_lcd_bsp/\libhal_bsp.a(alt_dev.o)
                0x0000ed38                alt_dev_null
                0x0000ed60                alt_fd_list
 .data          0x0000eee0        0x0 C:/work/fpga/nios2_camera_sdram_lcd/prj_eclipse/nios2_camera_sdram_lcd_bsp/\libhal_bsp.a(alt_errno.o)
 .data          0x0000eee0        0x0 C:/work/fpga/nios2_camera_sdram_lcd/prj_eclipse/nios2_camera_sdram_lcd_bsp/\libhal_bsp.a(alt_fstat.o)
 .data          0x0000eee0        0x0 C:/work/fpga/nios2_camera_sdram_lcd/prj_eclipse/nios2_camera_sdram_lcd_bsp/\libhal_bsp.a(alt_iic.o)
 .data          0x0000eee0        0x0 C:/work/fpga/nios2_camera_sdram_lcd/prj_eclipse/nios2_camera_sdram_lcd_bsp/\libhal_bsp.a(alt_iic_isr_register.o)
 .data          0x0000eee0        0x0 C:/work/fpga/nios2_camera_sdram_lcd/prj_eclipse/nios2_camera_sdram_lcd_bsp/\libhal_bsp.a(alt_irq_entry.o)
 .data          0x0000eee0        0x0 C:/work/fpga/nios2_camera_sdram_lcd/prj_eclipse/nios2_camera_sdram_lcd_bsp/\libhal_bsp.a(alt_irq_handler.o)
 .data          0x0000eee0        0x0 C:/work/fpga/nios2_camera_sdram_lcd/prj_eclipse/nios2_camera_sdram_lcd_bsp/\libhal_bsp.a(alt_irq_vars.o)
 .data          0x0000eee0        0x0 C:/work/fpga/nios2_camera_sdram_lcd/prj_eclipse/nios2_camera_sdram_lcd_bsp/\libhal_bsp.a(alt_isatty.o)
 .data          0x0000eee0        0x0 C:/work/fpga/nios2_camera_sdram_lcd/prj_eclipse/nios2_camera_sdram_lcd_bsp/\libhal_bsp.a(alt_load.o)
 .data          0x0000eee0        0x0 C:/work/fpga/nios2_camera_sdram_lcd/prj_eclipse/nios2_camera_sdram_lcd_bsp/\libhal_bsp.a(alt_lseek.o)
 .data          0x0000eee0        0x0 C:/work/fpga/nios2_camera_sdram_lcd/prj_eclipse/nios2_camera_sdram_lcd_bsp/\libhal_bsp.a(alt_main.o)
 .data          0x0000eee0        0x0 C:/work/fpga/nios2_camera_sdram_lcd/prj_eclipse/nios2_camera_sdram_lcd_bsp/\libhal_bsp.a(alt_malloc_lock.o)
 .data          0x0000eee0        0x0 C:/work/fpga/nios2_camera_sdram_lcd/prj_eclipse/nios2_camera_sdram_lcd_bsp/\libhal_bsp.a(alt_read.o)
 .data          0x0000eee0        0x0 C:/work/fpga/nios2_camera_sdram_lcd/prj_eclipse/nios2_camera_sdram_lcd_bsp/\libhal_bsp.a(alt_release_fd.o)
 .data          0x0000eee0        0x0 C:/work/fpga/nios2_camera_sdram_lcd/prj_eclipse/nios2_camera_sdram_lcd_bsp/\libhal_bsp.a(alt_sbrk.o)
 .data          0x0000eee0        0x0 C:/work/fpga/nios2_camera_sdram_lcd/prj_eclipse/nios2_camera_sdram_lcd_bsp/\libhal_bsp.a(alt_usleep.o)
 .data          0x0000eee0        0x0 C:/work/fpga/nios2_camera_sdram_lcd/prj_eclipse/nios2_camera_sdram_lcd_bsp/\libhal_bsp.a(alt_write.o)
 .data          0x0000eee0     0x1060 C:/work/fpga/nios2_camera_sdram_lcd/prj_eclipse/nios2_camera_sdram_lcd_bsp/\libhal_bsp.a(alt_sys_init.o)
 .data          0x0000ff40        0x0 C:/work/fpga/nios2_camera_sdram_lcd/prj_eclipse/nios2_camera_sdram_lcd_bsp/\libhal_bsp.a(altera_avalon_jtag_uart_fd.o)
 .data          0x0000ff40        0x0 C:/work/fpga/nios2_camera_sdram_lcd/prj_eclipse/nios2_camera_sdram_lcd_bsp/\libhal_bsp.a(altera_avalon_jtag_uart_init.o)
 .data          0x0000ff40        0x0 C:/work/fpga/nios2_camera_sdram_lcd/prj_eclipse/nios2_camera_sdram_lcd_bsp/\libhal_bsp.a(altera_avalon_jtag_uart_ioctl.o)
 .data          0x0000ff40        0x0 C:/work/fpga/nios2_camera_sdram_lcd/prj_eclipse/nios2_camera_sdram_lcd_bsp/\libhal_bsp.a(altera_avalon_jtag_uart_read.o)
 .data          0x0000ff40        0x0 C:/work/fpga/nios2_camera_sdram_lcd/prj_eclipse/nios2_camera_sdram_lcd_bsp/\libhal_bsp.a(altera_avalon_jtag_uart_write.o)
 .data          0x0000ff40        0x0 C:/work/fpga/nios2_camera_sdram_lcd/prj_eclipse/nios2_camera_sdram_lcd_bsp/\libhal_bsp.a(alt_alarm_start.o)
 .data          0x0000ff40        0x0 C:/work/fpga/nios2_camera_sdram_lcd/prj_eclipse/nios2_camera_sdram_lcd_bsp/\libhal_bsp.a(alt_busy_sleep.o)
 .data          0x0000ff40        0x0 C:/work/fpga/nios2_camera_sdram_lcd/prj_eclipse/nios2_camera_sdram_lcd_bsp/\libhal_bsp.a(alt_dcache_flush_all.o)
 .data          0x0000ff40        0x0 C:/work/fpga/nios2_camera_sdram_lcd/prj_eclipse/nios2_camera_sdram_lcd_bsp/\libhal_bsp.a(alt_dev_llist_insert.o)
 .data          0x0000ff40        0x0 C:/work/fpga/nios2_camera_sdram_lcd/prj_eclipse/nios2_camera_sdram_lcd_bsp/\libhal_bsp.a(alt_do_ctors.o)
 .data          0x0000ff40        0x0 C:/work/fpga/nios2_camera_sdram_lcd/prj_eclipse/nios2_camera_sdram_lcd_bsp/\libhal_bsp.a(alt_do_dtors.o)
 .data          0x0000ff40        0x0 C:/work/fpga/nios2_camera_sdram_lcd/prj_eclipse/nios2_camera_sdram_lcd_bsp/\libhal_bsp.a(alt_exception_entry.o)
 .data          0x0000ff40        0x0 C:/work/fpga/nios2_camera_sdram_lcd/prj_eclipse/nios2_camera_sdram_lcd_bsp/\libhal_bsp.a(alt_icache_flush_all.o)
 .data          0x0000ff40        0x0 C:/work/fpga/nios2_camera_sdram_lcd/prj_eclipse/nios2_camera_sdram_lcd_bsp/\libhal_bsp.a(alt_io_redirect.o)
 .data          0x0000ff40        0x0 C:/work/fpga/nios2_camera_sdram_lcd/prj_eclipse/nios2_camera_sdram_lcd_bsp/\libhal_bsp.a(alt_open.o)
 .data          0x0000ff40        0x0 C:/work/fpga/nios2_camera_sdram_lcd/prj_eclipse/nios2_camera_sdram_lcd_bsp/\libhal_bsp.a(alt_tick.o)
 .data          0x0000ff40        0x0 C:/work/fpga/nios2_camera_sdram_lcd/prj_eclipse/nios2_camera_sdram_lcd_bsp/\libhal_bsp.a(altera_nios2_qsys_irq.o)
 .data          0x0000ff40        0x0 C:/work/fpga/nios2_camera_sdram_lcd/prj_eclipse/nios2_camera_sdram_lcd_bsp/\libhal_bsp.a(alt_find_dev.o)
 .data          0x0000ff40        0x0 C:/work/fpga/nios2_camera_sdram_lcd/prj_eclipse/nios2_camera_sdram_lcd_bsp/\libhal_bsp.a(alt_find_file.o)
 .data          0x0000ff40        0x0 C:/work/fpga/nios2_camera_sdram_lcd/prj_eclipse/nios2_camera_sdram_lcd_bsp/\libhal_bsp.a(alt_get_fd.o)
 .data          0x0000ff40        0x0 c:/altera/12.1/nios2eds/bin/gnu/h-i686-mingw32/bin/../lib/gcc/nios2-elf/4.1.2/../../../../nios2-elf/lib/mno-hw-mul\libc.a(lib_a-atexit.o)
 .data          0x0000ff40        0x0 c:/altera/12.1/nios2eds/bin/gnu/h-i686-mingw32/bin/../lib/gcc/nios2-elf/4.1.2/../../../../nios2-elf/lib/mno-hw-mul\libc.a(lib_a-exit.o)
 .data          0x0000ff40        0x0 c:/altera/12.1/nios2eds/bin/gnu/h-i686-mingw32/bin/../lib/gcc/nios2-elf/4.1.2/../../../../nios2-elf/lib/mno-hw-mul\libc.a(lib_a-memcmp.o)
 .data          0x0000ff40        0x0 c:/altera/12.1/nios2eds/bin/gnu/h-i686-mingw32/bin/../lib/gcc/nios2-elf/4.1.2/../../../../nios2-elf/lib/mno-hw-mul\libc.a(lib_a-__atexit.o)
 .data          0x0000ff40        0x0 c:/altera/12.1/nios2eds/bin/gnu/h-i686-mingw32/bin/../lib/gcc/nios2-elf/4.1.2/../../../../nios2-elf/lib/mno-hw-mul\libc.a(lib_a-__call_atexit.o)
 .data          0x0000ff40        0x0 C:/work/fpga/nios2_camera_sdram_lcd/prj_eclipse/nios2_camera_sdram_lcd_bsp/\libhal_bsp.a(alt_exit.o)
                0x00017f40                _gp = ABSOLUTE ((. + 0x8000))
                0x00017f40                PROVIDE (gp, _gp)
 *(.rwdata .rwdata.*)
 *(.sdata .sdata.* .gnu.linkonce.s.*)
 .sdata         0x0000ff40        0x8 obj/default/avalon_isp_algo_2a.o
 .sdata         0x0000ff48        0x8 c:/altera/12.1/nios2eds/bin/gnu/h-i686-mingw32/bin/../lib/gcc/nios2-elf/4.1.2/../../../../nios2-elf/lib/mno-hw-mul\libc.a(lib_a-impure.o)
                0x0000ff48                _impure_ptr
                0x0000ff4c                _global_impure_ptr
 .sdata         0x0000ff50        0x8 c:/altera/12.1/nios2eds/bin/gnu/h-i686-mingw32/bin/../lib/gcc/nios2-elf/4.1.2/../../../../nios2-elf/lib/mno-hw-mul\libc.a(lib_a-locale.o)
                0x0000ff50                __mb_cur_max
 .sdata         0x0000ff58        0x8 c:/altera/12.1/nios2eds/bin/gnu/h-i686-mingw32/bin/../lib/gcc/nios2-elf/4.1.2/../../../../nios2-elf/lib/mno-hw-mul\libc.a(lib_a-mallocr.o)
                0x0000ff58                __malloc_trim_threshold
                0x0000ff5c                __malloc_sbrk_base
 .sdata         0x0000ff60       0x14 C:/work/fpga/nios2_camera_sdram_lcd/prj_eclipse/nios2_camera_sdram_lcd_bsp/\libhal_bsp.a(alt_dev.o)
                0x0000ff60                alt_fs_list
                0x0000ff68                alt_dev_list
                0x0000ff70                alt_max_fd
 .sdata         0x0000ff74        0x4 C:/work/fpga/nios2_camera_sdram_lcd/prj_eclipse/nios2_camera_sdram_lcd_bsp/\libhal_bsp.a(alt_errno.o)
                0x0000ff74                alt_errno
 .sdata         0x0000ff78        0x4 C:/work/fpga/nios2_camera_sdram_lcd/prj_eclipse/nios2_camera_sdram_lcd_bsp/\libhal_bsp.a(alt_irq_vars.o)
                0x0000ff78                alt_priority_mask
 .sdata         0x0000ff7c        0x4 C:/work/fpga/nios2_camera_sdram_lcd/prj_eclipse/nios2_camera_sdram_lcd_bsp/\libhal_bsp.a(alt_sbrk.o)
 .sdata         0x0000ff80        0x8 C:/work/fpga/nios2_camera_sdram_lcd/prj_eclipse/nios2_camera_sdram_lcd_bsp/\libhal_bsp.a(alt_tick.o)
                0x0000ff80                alt_alarm_list
 *(.sdata2 .sdata2.* .gnu.linkonce.s2.*)
                0x0000ff88                . = ALIGN (0x4)
                0x0000ff88                _edata = ABSOLUTE (.)
                0x0000ff88                PROVIDE (edata, ABSOLUTE (.))
                0x0000ff88                PROVIDE (__ram_rwdata_end, ABSOLUTE (.))
                0x0000ff88                PROVIDE (__flash_rwdata_start, LOADADDR (.rwdata))

.bss            0x000119ec    0x7faf8
                0x000119ec                __bss_start = ABSOLUTE (.)
                0x000119ec                PROVIDE (__sbss_start, ABSOLUTE (.))
                0x000119ec                PROVIDE (___sbss_start, ABSOLUTE (.))
 *(.dynsbss)
 *(.sbss .sbss.* .gnu.linkonce.sb.*)
 .sbss          0x000119ec        0xc obj/default/hello_world.o
 .sbss          0x000119f8        0xc c:/altera/12.1/nios2eds/bin/gnu/h-i686-mingw32/bin/../lib/gcc/nios2-elf/4.1.2/../../../../nios2-elf/lib/mno-hw-mul\libc.a(lib_a-locale.o)
                0x000119f8                __nlocale_changed
                0x000119fc                __mlocale_changed
                0x00011a00                _PathLocale
 .sbss          0x00011a04        0xc c:/altera/12.1/nios2eds/bin/gnu/h-i686-mingw32/bin/../lib/gcc/nios2-elf/4.1.2/../../../../nios2-elf/lib/mno-hw-mul\libc.a(lib_a-mallocr.o)
                0x00011a04                __malloc_top_pad
                0x00011a08                __malloc_max_sbrked_mem
                0x00011a0c                __malloc_max_total_mem
 .sbss          0x00011a10        0x4 c:/altera/12.1/nios2eds/bin/gnu/h-i686-mingw32/bin/../lib/gcc/nios2-elf/4.1.2/../../../../nios2-elf/lib/mno-hw-mul\libc.a(lib_a-int_errno.o)
                0x00011a10                errno
 .sbss          0x00011a14        0x4 C:/work/fpga/nios2_camera_sdram_lcd/prj_eclipse/nios2_camera_sdram_lcd_bsp/\libhal_bsp.a(alt_irq_vars.o)
                0x00011a14                alt_irq_active
 .sbss          0x00011a18        0xc C:/work/fpga/nios2_camera_sdram_lcd/prj_eclipse/nios2_camera_sdram_lcd_bsp/\libhal_bsp.a(alt_main.o)
                0x00011a18                alt_argc
                0x00011a1c                alt_argv
                0x00011a20                alt_envp
 .sbss          0x00011a24        0x8 C:/work/fpga/nios2_camera_sdram_lcd/prj_eclipse/nios2_camera_sdram_lcd_bsp/\libhal_bsp.a(alt_tick.o)
                0x00011a24                _alt_tick_rate
                0x00011a28                _alt_nticks
 *(.sbss2 .sbss2.* .gnu.linkonce.sb2.*)
 *(.scommon)
                0x00011a2c                PROVIDE (__sbss_end, ABSOLUTE (.))
                0x00011a2c                PROVIDE (___sbss_end, ABSOLUTE (.))
 *(.dynbss)
 *(.bss .bss.* .gnu.linkonce.b.*)
 .bss           0x00011a2c        0x0 C:/work/fpga/nios2_camera_sdram_lcd/prj_eclipse/nios2_camera_sdram_lcd_bsp//obj/HAL/src/crt0.o
 .bss           0x00011a2c        0x0 obj/default/avalon_isp_algo_2a.o
 .bss           0x00011a2c    0x7f800 obj/default/hello_world.o
 .bss           0x0009122c        0x0 obj/default/ov5640_drv.o
 .bss           0x0009122c        0x0 c:/altera/12.1/nios2eds/bin/gnu/h-i686-mingw32/bin/../lib/gcc/nios2-elf/4.1.2/mno-hw-mul\libgcc.a(lib2-divmod.o)
 .bss           0x0009122c        0x0 c:/altera/12.1/nios2eds/bin/gnu/h-i686-mingw32/bin/../lib/gcc/nios2-elf/4.1.2/mno-hw-mul\libgcc.a(lib2-mul.o)
 .bss           0x0009122c        0x0 c:/altera/12.1/nios2eds/bin/gnu/h-i686-mingw32/bin/../lib/gcc/nios2-elf/4.1.2/../../../../nios2-elf/lib/mno-hw-mul\libc.a(lib_a-printf.o)
 .bss           0x0009122c        0x0 c:/altera/12.1/nios2eds/bin/gnu/h-i686-mingw32/bin/../lib/gcc/nios2-elf/4.1.2/../../../../nios2-elf/lib/mno-hw-mul\libc.a(lib_a-puts.o)
 .bss           0x0009122c        0x0 c:/altera/12.1/nios2eds/bin/gnu/h-i686-mingw32/bin/../lib/gcc/nios2-elf/4.1.2/../../../../nios2-elf/lib/mno-hw-mul\libc.a(lib_a-strlen.o)
 .bss           0x0009122c        0x0 c:/altera/12.1/nios2eds/bin/gnu/h-i686-mingw32/bin/../lib/gcc/nios2-elf/4.1.2/../../../../nios2-elf/lib/mno-hw-mul\libc.a(lib_a-vfprintf.o)
 .bss           0x0009122c        0x0 c:/altera/12.1/nios2eds/bin/gnu/h-i686-mingw32/bin/../lib/gcc/nios2-elf/4.1.2/../../../../nios2-elf/lib/mno-hw-mul\libc.a(lib_a-wsetup.o)
 .bss           0x0009122c        0x0 c:/altera/12.1/nios2eds/bin/gnu/h-i686-mingw32/bin/../lib/gcc/nios2-elf/4.1.2/../../../../nios2-elf/lib/mno-hw-mul\libc.a(lib_a-dtoa.o)
 .bss           0x0009122c        0x0 c:/altera/12.1/nios2eds/bin/gnu/h-i686-mingw32/bin/../lib/gcc/nios2-elf/4.1.2/../../../../nios2-elf/lib/mno-hw-mul\libc.a(lib_a-fflush.o)
 .bss           0x0009122c        0x0 c:/altera/12.1/nios2eds/bin/gnu/h-i686-mingw32/bin/../lib/gcc/nios2-elf/4.1.2/../../../../nios2-elf/lib/mno-hw-mul\libc.a(lib_a-findfp.o)
 .bss           0x0009122c        0x0 c:/altera/12.1/nios2eds/bin/gnu/h-i686-mingw32/bin/../lib/gcc/nios2-elf/4.1.2/../../../../nios2-elf/lib/mno-hw-mul\libc.a(lib_a-freer.o)
 .bss           0x0009122c        0x0 c:/altera/12.1/nios2eds/bin/gnu/h-i686-mingw32/bin/../lib/gcc/nios2-elf/4.1.2/../../../../nios2-elf/lib/mno-hw-mul\libc.a(lib_a-fvwrite.o)
 .bss           0x0009122c        0x0 c:/altera/12.1/nios2eds/bin/gnu/h-i686-mingw32/bin/../lib/gcc/nios2-elf/4.1.2/../../../../nios2-elf/lib/mno-hw-mul\libc.a(lib_a-fwalk.o)
 .bss           0x0009122c        0x0 c:/altera/12.1/nios2eds/bin/gnu/h-i686-mingw32/bin/../lib/gcc/nios2-elf/4.1.2/../../../../nios2-elf/lib/mno-hw-mul\libc.a(lib_a-impure.o)
 .bss           0x0009122c        0x0 c:/altera/12.1/nios2eds/bin/gnu/h-i686-mingw32/bin/../lib/gcc/nios2-elf/4.1.2/../../../../nios2-elf/lib/mno-hw-mul\libc.a(lib_a-locale.o)
 .bss           0x0009122c        0x0 c:/altera/12.1/nios2eds/bin/gnu/h-i686-mingw32/bin/../lib/gcc/nios2-elf/4.1.2/../../../../nios2-elf/lib/mno-hw-mul\libc.a(lib_a-makebuf.o)
 .bss           0x0009122c       0x28 c:/altera/12.1/nios2eds/bin/gnu/h-i686-mingw32/bin/../lib/gcc/nios2-elf/4.1.2/../../../../nios2-elf/lib/mno-hw-mul\libc.a(lib_a-mallocr.o)
                0x0009122c                __malloc_current_mallinfo
 .bss           0x00091254        0x0 c:/altera/12.1/nios2eds/bin/gnu/h-i686-mingw32/bin/../lib/gcc/nios2-elf/4.1.2/../../../../nios2-elf/lib/mno-hw-mul\libc.a(lib_a-memchr.o)
 .bss           0x00091254        0x0 c:/altera/12.1/nios2eds/bin/gnu/h-i686-mingw32/bin/../lib/gcc/nios2-elf/4.1.2/../../../../nios2-elf/lib/mno-hw-mul\libc.a(lib_a-memcpy.o)
 .bss           0x00091254        0x0 c:/altera/12.1/nios2eds/bin/gnu/h-i686-mingw32/bin/../lib/gcc/nios2-elf/4.1.2/../../../../nios2-elf/lib/mno-hw-mul\libc.a(lib_a-memmove.o)
 .bss           0x00091254        0x0 c:/altera/12.1/nios2eds/bin/gnu/h-i686-mingw32/bin/../lib/gcc/nios2-elf/4.1.2/../../../../nios2-elf/lib/mno-hw-mul\libc.a(lib_a-memset.o)
 .bss           0x00091254        0x0 c:/altera/12.1/nios2eds/bin/gnu/h-i686-mingw32/bin/../lib/gcc/nios2-elf/4.1.2/../../../../nios2-elf/lib/mno-hw-mul\libc.a(lib_a-mprec.o)
 .bss           0x00091254        0x0 c:/altera/12.1/nios2eds/bin/gnu/h-i686-mingw32/bin/../lib/gcc/nios2-elf/4.1.2/../../../../nios2-elf/lib/mno-hw-mul\libc.a(lib_a-reallocr.o)
 .bss           0x00091254        0x0 c:/altera/12.1/nios2eds/bin/gnu/h-i686-mingw32/bin/../lib/gcc/nios2-elf/4.1.2/../../../../nios2-elf/lib/mno-hw-mul\libc.a(lib_a-s_isinfd.o)
 .bss           0x00091254        0x0 c:/altera/12.1/nios2eds/bin/gnu/h-i686-mingw32/bin/../lib/gcc/nios2-elf/4.1.2/../../../../nios2-elf/lib/mno-hw-mul\libc.a(lib_a-s_isnand.o)
 .bss           0x00091254        0x0 c:/altera/12.1/nios2eds/bin/gnu/h-i686-mingw32/bin/../lib/gcc/nios2-elf/4.1.2/../../../../nios2-elf/lib/mno-hw-mul\libc.a(lib_a-sbrkr.o)
 .bss           0x00091254        0x0 c:/altera/12.1/nios2eds/bin/gnu/h-i686-mingw32/bin/../lib/gcc/nios2-elf/4.1.2/../../../../nios2-elf/lib/mno-hw-mul\libc.a(lib_a-stdio.o)
 .bss           0x00091254        0x0 c:/altera/12.1/nios2eds/bin/gnu/h-i686-mingw32/bin/../lib/gcc/nios2-elf/4.1.2/../../../../nios2-elf/lib/mno-hw-mul\libc.a(lib_a-strcmp.o)
 .bss           0x00091254        0x0 c:/altera/12.1/nios2eds/bin/gnu/h-i686-mingw32/bin/../lib/gcc/nios2-elf/4.1.2/../../../../nios2-elf/lib/mno-hw-mul\libc.a(lib_a-writer.o)
 .bss           0x00091254        0x0 c:/altera/12.1/nios2eds/bin/gnu/h-i686-mingw32/bin/../lib/gcc/nios2-elf/4.1.2/../../../../nios2-elf/lib/mno-hw-mul\libc.a(lib_a-callocr.o)
 .bss           0x00091254        0x0 c:/altera/12.1/nios2eds/bin/gnu/h-i686-mingw32/bin/../lib/gcc/nios2-elf/4.1.2/../../../../nios2-elf/lib/mno-hw-mul\libc.a(lib_a-closer.o)
 .bss           0x00091254        0x0 c:/altera/12.1/nios2eds/bin/gnu/h-i686-mingw32/bin/../lib/gcc/nios2-elf/4.1.2/../../../../nios2-elf/lib/mno-hw-mul\libc.a(lib_a-fclose.o)
 .bss           0x00091254        0x0 c:/altera/12.1/nios2eds/bin/gnu/h-i686-mingw32/bin/../lib/gcc/nios2-elf/4.1.2/../../../../nios2-elf/lib/mno-hw-mul\libc.a(lib_a-fstatr.o)
 .bss           0x00091254        0x0 c:/altera/12.1/nios2eds/bin/gnu/h-i686-mingw32/bin/../lib/gcc/nios2-elf/4.1.2/../../../../nios2-elf/lib/mno-hw-mul\libc.a(lib_a-int_errno.o)
 .bss           0x00091254        0x0 c:/altera/12.1/nios2eds/bin/gnu/h-i686-mingw32/bin/../lib/gcc/nios2-elf/4.1.2/../../../../nios2-elf/lib/mno-hw-mul\libc.a(lib_a-isattyr.o)
 .bss           0x00091254        0x0 c:/altera/12.1/nios2eds/bin/gnu/h-i686-mingw32/bin/../lib/gcc/nios2-elf/4.1.2/../../../../nios2-elf/lib/mno-hw-mul\libc.a(lib_a-lseekr.o)
 .bss           0x00091254        0x0 c:/altera/12.1/nios2eds/bin/gnu/h-i686-mingw32/bin/../lib/gcc/nios2-elf/4.1.2/../../../../nios2-elf/lib/mno-hw-mul\libc.a(lib_a-readr.o)
 .bss           0x00091254        0x0 c:/altera/12.1/nios2eds/bin/gnu/h-i686-mingw32/bin/../lib/gcc/nios2-elf/4.1.2/mno-hw-mul\libgcc.a(_udivdi3.o)
 .bss           0x00091254        0x0 c:/altera/12.1/nios2eds/bin/gnu/h-i686-mingw32/bin/../lib/gcc/nios2-elf/4.1.2/mno-hw-mul\libgcc.a(_umoddi3.o)
 .bss           0x00091254        0x0 c:/altera/12.1/nios2eds/bin/gnu/h-i686-mingw32/bin/../lib/gcc/nios2-elf/4.1.2/mno-hw-mul\libgcc.a(_addsub_df.o)
 .bss           0x00091254        0x0 c:/altera/12.1/nios2eds/bin/gnu/h-i686-mingw32/bin/../lib/gcc/nios2-elf/4.1.2/mno-hw-mul\libgcc.a(_mul_df.o)
 .bss           0x00091254        0x0 c:/altera/12.1/nios2eds/bin/gnu/h-i686-mingw32/bin/../lib/gcc/nios2-elf/4.1.2/mno-hw-mul\libgcc.a(_div_df.o)
 .bss           0x00091254        0x0 c:/altera/12.1/nios2eds/bin/gnu/h-i686-mingw32/bin/../lib/gcc/nios2-elf/4.1.2/mno-hw-mul\libgcc.a(_eq_df.o)
 .bss           0x00091254        0x0 c:/altera/12.1/nios2eds/bin/gnu/h-i686-mingw32/bin/../lib/gcc/nios2-elf/4.1.2/mno-hw-mul\libgcc.a(_ne_df.o)
 .bss           0x00091254        0x0 c:/altera/12.1/nios2eds/bin/gnu/h-i686-mingw32/bin/../lib/gcc/nios2-elf/4.1.2/mno-hw-mul\libgcc.a(_gt_df.o)
 .bss           0x00091254        0x0 c:/altera/12.1/nios2eds/bin/gnu/h-i686-mingw32/bin/../lib/gcc/nios2-elf/4.1.2/mno-hw-mul\libgcc.a(_ge_df.o)
 .bss           0x00091254        0x0 c:/altera/12.1/nios2eds/bin/gnu/h-i686-mingw32/bin/../lib/gcc/nios2-elf/4.1.2/mno-hw-mul\libgcc.a(_lt_df.o)
 .bss           0x00091254        0x0 c:/altera/12.1/nios2eds/bin/gnu/h-i686-mingw32/bin/../lib/gcc/nios2-elf/4.1.2/mno-hw-mul\libgcc.a(_si_to_df.o)
 .bss           0x00091254        0x0 c:/altera/12.1/nios2eds/bin/gnu/h-i686-mingw32/bin/../lib/gcc/nios2-elf/4.1.2/mno-hw-mul\libgcc.a(_df_to_si.o)
 .bss           0x00091254        0x0 c:/altera/12.1/nios2eds/bin/gnu/h-i686-mingw32/bin/../lib/gcc/nios2-elf/4.1.2/mno-hw-mul\libgcc.a(_thenan_df.o)
 .bss           0x00091254        0x0 c:/altera/12.1/nios2eds/bin/gnu/h-i686-mingw32/bin/../lib/gcc/nios2-elf/4.1.2/mno-hw-mul\libgcc.a(_usi_to_df.o)
 .bss           0x00091254        0x0 c:/altera/12.1/nios2eds/bin/gnu/h-i686-mingw32/bin/../lib/gcc/nios2-elf/4.1.2/mno-hw-mul\libgcc.a(_muldi3.o)
 .bss           0x00091254        0x0 c:/altera/12.1/nios2eds/bin/gnu/h-i686-mingw32/bin/../lib/gcc/nios2-elf/4.1.2/mno-hw-mul\libgcc.a(_clz.o)
 .bss           0x00091254        0x0 c:/altera/12.1/nios2eds/bin/gnu/h-i686-mingw32/bin/../lib/gcc/nios2-elf/4.1.2/mno-hw-mul\libgcc.a(_clzsi2.o)
 .bss           0x00091254        0x0 c:/altera/12.1/nios2eds/bin/gnu/h-i686-mingw32/bin/../lib/gcc/nios2-elf/4.1.2/mno-hw-mul\libgcc.a(_pack_df.o)
 .bss           0x00091254        0x0 c:/altera/12.1/nios2eds/bin/gnu/h-i686-mingw32/bin/../lib/gcc/nios2-elf/4.1.2/mno-hw-mul\libgcc.a(_unpack_df.o)
 .bss           0x00091254        0x0 c:/altera/12.1/nios2eds/bin/gnu/h-i686-mingw32/bin/../lib/gcc/nios2-elf/4.1.2/mno-hw-mul\libgcc.a(_fpcmp_parts_df.o)
 .bss           0x00091254        0x0 C:/work/fpga/nios2_camera_sdram_lcd/prj_eclipse/nios2_camera_sdram_lcd_bsp/\libhal_bsp.a(alt_close.o)
 .bss           0x00091254        0x0 C:/work/fpga/nios2_camera_sdram_lcd/prj_eclipse/nios2_camera_sdram_lcd_bsp/\libhal_bsp.a(alt_dev.o)
 .bss           0x00091254        0x0 C:/work/fpga/nios2_camera_sdram_lcd/prj_eclipse/nios2_camera_sdram_lcd_bsp/\libhal_bsp.a(alt_errno.o)
 .bss           0x00091254        0x0 C:/work/fpga/nios2_camera_sdram_lcd/prj_eclipse/nios2_camera_sdram_lcd_bsp/\libhal_bsp.a(alt_fstat.o)
 .bss           0x00091254        0x0 C:/work/fpga/nios2_camera_sdram_lcd/prj_eclipse/nios2_camera_sdram_lcd_bsp/\libhal_bsp.a(alt_iic.o)
 .bss           0x00091254        0x0 C:/work/fpga/nios2_camera_sdram_lcd/prj_eclipse/nios2_camera_sdram_lcd_bsp/\libhal_bsp.a(alt_iic_isr_register.o)
 .bss           0x00091254        0x0 C:/work/fpga/nios2_camera_sdram_lcd/prj_eclipse/nios2_camera_sdram_lcd_bsp/\libhal_bsp.a(alt_irq_entry.o)
 .bss           0x00091254        0x0 C:/work/fpga/nios2_camera_sdram_lcd/prj_eclipse/nios2_camera_sdram_lcd_bsp/\libhal_bsp.a(alt_irq_handler.o)
 .bss           0x00091254        0x0 C:/work/fpga/nios2_camera_sdram_lcd/prj_eclipse/nios2_camera_sdram_lcd_bsp/\libhal_bsp.a(alt_irq_vars.o)
 .bss           0x00091254        0x0 C:/work/fpga/nios2_camera_sdram_lcd/prj_eclipse/nios2_camera_sdram_lcd_bsp/\libhal_bsp.a(alt_isatty.o)
 .bss           0x00091254        0x0 C:/work/fpga/nios2_camera_sdram_lcd/prj_eclipse/nios2_camera_sdram_lcd_bsp/\libhal_bsp.a(alt_load.o)
 .bss           0x00091254        0x0 C:/work/fpga/nios2_camera_sdram_lcd/prj_eclipse/nios2_camera_sdram_lcd_bsp/\libhal_bsp.a(alt_lseek.o)
 .bss           0x00091254        0x0 C:/work/fpga/nios2_camera_sdram_lcd/prj_eclipse/nios2_camera_sdram_lcd_bsp/\libhal_bsp.a(alt_main.o)
 .bss           0x00091254        0x0 C:/work/fpga/nios2_camera_sdram_lcd/prj_eclipse/nios2_camera_sdram_lcd_bsp/\libhal_bsp.a(alt_malloc_lock.o)
 .bss           0x00091254        0x0 C:/work/fpga/nios2_camera_sdram_lcd/prj_eclipse/nios2_camera_sdram_lcd_bsp/\libhal_bsp.a(alt_read.o)
 .bss           0x00091254        0x0 C:/work/fpga/nios2_camera_sdram_lcd/prj_eclipse/nios2_camera_sdram_lcd_bsp/\libhal_bsp.a(alt_release_fd.o)
 .bss           0x00091254        0x0 C:/work/fpga/nios2_camera_sdram_lcd/prj_eclipse/nios2_camera_sdram_lcd_bsp/\libhal_bsp.a(alt_sbrk.o)
 .bss           0x00091254        0x0 C:/work/fpga/nios2_camera_sdram_lcd/prj_eclipse/nios2_camera_sdram_lcd_bsp/\libhal_bsp.a(alt_usleep.o)
 .bss           0x00091254        0x0 C:/work/fpga/nios2_camera_sdram_lcd/prj_eclipse/nios2_camera_sdram_lcd_bsp/\libhal_bsp.a(alt_write.o)
 .bss           0x00091254        0x0 C:/work/fpga/nios2_camera_sdram_lcd/prj_eclipse/nios2_camera_sdram_lcd_bsp/\libhal_bsp.a(alt_sys_init.o)
 .bss           0x00091254        0x0 C:/work/fpga/nios2_camera_sdram_lcd/prj_eclipse/nios2_camera_sdram_lcd_bsp/\libhal_bsp.a(altera_avalon_jtag_uart_fd.o)
 .bss           0x00091254        0x0 C:/work/fpga/nios2_camera_sdram_lcd/prj_eclipse/nios2_camera_sdram_lcd_bsp/\libhal_bsp.a(altera_avalon_jtag_uart_init.o)
 .bss           0x00091254        0x0 C:/work/fpga/nios2_camera_sdram_lcd/prj_eclipse/nios2_camera_sdram_lcd_bsp/\libhal_bsp.a(altera_avalon_jtag_uart_ioctl.o)
 .bss           0x00091254        0x0 C:/work/fpga/nios2_camera_sdram_lcd/prj_eclipse/nios2_camera_sdram_lcd_bsp/\libhal_bsp.a(altera_avalon_jtag_uart_read.o)
 .bss           0x00091254        0x0 C:/work/fpga/nios2_camera_sdram_lcd/prj_eclipse/nios2_camera_sdram_lcd_bsp/\libhal_bsp.a(altera_avalon_jtag_uart_write.o)
 .bss           0x00091254        0x0 C:/work/fpga/nios2_camera_sdram_lcd/prj_eclipse/nios2_camera_sdram_lcd_bsp/\libhal_bsp.a(alt_alarm_start.o)
 .bss           0x00091254        0x0 C:/work/fpga/nios2_camera_sdram_lcd/prj_eclipse/nios2_camera_sdram_lcd_bsp/\libhal_bsp.a(alt_busy_sleep.o)
 .bss           0x00091254        0x0 C:/work/fpga/nios2_camera_sdram_lcd/prj_eclipse/nios2_camera_sdram_lcd_bsp/\libhal_bsp.a(alt_dcache_flush_all.o)
 .bss           0x00091254        0x0 C:/work/fpga/nios2_camera_sdram_lcd/prj_eclipse/nios2_camera_sdram_lcd_bsp/\libhal_bsp.a(alt_dev_llist_insert.o)
 .bss           0x00091254        0x0 C:/work/fpga/nios2_camera_sdram_lcd/prj_eclipse/nios2_camera_sdram_lcd_bsp/\libhal_bsp.a(alt_do_ctors.o)
 .bss           0x00091254        0x0 C:/work/fpga/nios2_camera_sdram_lcd/prj_eclipse/nios2_camera_sdram_lcd_bsp/\libhal_bsp.a(alt_do_dtors.o)
 .bss           0x00091254        0x0 C:/work/fpga/nios2_camera_sdram_lcd/prj_eclipse/nios2_camera_sdram_lcd_bsp/\libhal_bsp.a(alt_exception_entry.o)
 .bss           0x00091254        0x0 C:/work/fpga/nios2_camera_sdram_lcd/prj_eclipse/nios2_camera_sdram_lcd_bsp/\libhal_bsp.a(alt_icache_flush_all.o)
 .bss           0x00091254        0x0 C:/work/fpga/nios2_camera_sdram_lcd/prj_eclipse/nios2_camera_sdram_lcd_bsp/\libhal_bsp.a(alt_io_redirect.o)
 .bss           0x00091254        0x0 C:/work/fpga/nios2_camera_sdram_lcd/prj_eclipse/nios2_camera_sdram_lcd_bsp/\libhal_bsp.a(alt_open.o)
 .bss           0x00091254        0x0 C:/work/fpga/nios2_camera_sdram_lcd/prj_eclipse/nios2_camera_sdram_lcd_bsp/\libhal_bsp.a(alt_tick.o)
 .bss           0x00091254        0x0 C:/work/fpga/nios2_camera_sdram_lcd/prj_eclipse/nios2_camera_sdram_lcd_bsp/\libhal_bsp.a(altera_nios2_qsys_irq.o)
 .bss           0x00091254        0x0 C:/work/fpga/nios2_camera_sdram_lcd/prj_eclipse/nios2_camera_sdram_lcd_bsp/\libhal_bsp.a(alt_find_dev.o)
 .bss           0x00091254        0x0 C:/work/fpga/nios2_camera_sdram_lcd/prj_eclipse/nios2_camera_sdram_lcd_bsp/\libhal_bsp.a(alt_find_file.o)
 .bss           0x00091254        0x0 C:/work/fpga/nios2_camera_sdram_lcd/prj_eclipse/nios2_camera_sdram_lcd_bsp/\libhal_bsp.a(alt_get_fd.o)
 .bss           0x00091254        0x0 c:/altera/12.1/nios2eds/bin/gnu/h-i686-mingw32/bin/../lib/gcc/nios2-elf/4.1.2/../../../../nios2-elf/lib/mno-hw-mul\libc.a(lib_a-atexit.o)
 .bss           0x00091254        0x0 c:/altera/12.1/nios2eds/bin/gnu/h-i686-mingw32/bin/../lib/gcc/nios2-elf/4.1.2/../../../../nios2-elf/lib/mno-hw-mul\libc.a(lib_a-exit.o)
 .bss           0x00091254        0x0 c:/altera/12.1/nios2eds/bin/gnu/h-i686-mingw32/bin/../lib/gcc/nios2-elf/4.1.2/../../../../nios2-elf/lib/mno-hw-mul\libc.a(lib_a-memcmp.o)
 .bss           0x00091254        0x0 c:/altera/12.1/nios2eds/bin/gnu/h-i686-mingw32/bin/../lib/gcc/nios2-elf/4.1.2/../../../../nios2-elf/lib/mno-hw-mul\libc.a(lib_a-__atexit.o)
 .bss           0x00091254        0x0 c:/altera/12.1/nios2eds/bin/gnu/h-i686-mingw32/bin/../lib/gcc/nios2-elf/4.1.2/../../../../nios2-elf/lib/mno-hw-mul\libc.a(lib_a-__call_atexit.o)
 .bss           0x00091254        0x0 C:/work/fpga/nios2_camera_sdram_lcd/prj_eclipse/nios2_camera_sdram_lcd_bsp/\libhal_bsp.a(alt_exit.o)
 *(COMMON)
 COMMON         0x00091254      0x100 C:/work/fpga/nios2_camera_sdram_lcd/prj_eclipse/nios2_camera_sdram_lcd_bsp/\libhal_bsp.a(alt_irq_handler.o)
                0x00091254                alt_irq
 COMMON         0x00091354      0x190 c:/altera/12.1/nios2eds/bin/gnu/h-i686-mingw32/bin/../lib/gcc/nios2-elf/4.1.2/../../../../nios2-elf/lib/mno-hw-mul\libc.a(lib_a-atexit.o)
                0x00091354                _atexit0
                0x000914e4                . = ALIGN (0x4)
                0x000914e4                __bss_end = ABSOLUTE (.)

.sdram          0x000914e4        0x0
                0x000914e4                PROVIDE (_alt_partition_sdram_start, ABSOLUTE (.))
 *(.sdram. sdram.*)
                0x000914e4                . = ALIGN (0x4)
                0x000914e4                PROVIDE (_alt_partition_sdram_end, ABSOLUTE (.))
                0x000914e4                _end = ABSOLUTE (.)
                0x000914e4                end = ABSOLUTE (.)
                0x000914e4                __alt_stack_base = ABSOLUTE (.)
                0x000914e4                PROVIDE (_alt_partition_sdram_load_addr, LOADADDR (.sdram))

.stab
 *(.stab)

.stabstr
 *(.stabstr)

.stab.excl
 *(.stab.excl)

.stab.exclstr
 *(.stab.exclstr)

.stab.index
 *(.stab.index)

.stab.indexstr
 *(.stab.indexstr)

.comment        0x00000000       0x23
 *(.comment)
 .comment       0x00000000       0x23 obj/default/avalon_isp_algo_2a.o
                                 0x24 (size before relaxing)
 .comment       0x00000000       0x24 obj/default/hello_world.o
 .comment       0x00000000       0x24 obj/default/ov5640_drv.o
 .comment       0x00000000       0x24 c:/altera/12.1/nios2eds/bin/gnu/h-i686-mingw32/bin/../lib/gcc/nios2-elf/4.1.2/mno-hw-mul\libgcc.a(lib2-divmod.o)
 .comment       0x00000000       0x24 c:/altera/12.1/nios2eds/bin/gnu/h-i686-mingw32/bin/../lib/gcc/nios2-elf/4.1.2/mno-hw-mul\libgcc.a(lib2-mul.o)
 .comment       0x00000000       0x24 c:/altera/12.1/nios2eds/bin/gnu/h-i686-mingw32/bin/../lib/gcc/nios2-elf/4.1.2/../../../../nios2-elf/lib/mno-hw-mul\libc.a(lib_a-printf.o)
 .comment       0x00000000       0x24 c:/altera/12.1/nios2eds/bin/gnu/h-i686-mingw32/bin/../lib/gcc/nios2-elf/4.1.2/../../../../nios2-elf/lib/mno-hw-mul\libc.a(lib_a-puts.o)
 .comment       0x00000000       0x24 c:/altera/12.1/nios2eds/bin/gnu/h-i686-mingw32/bin/../lib/gcc/nios2-elf/4.1.2/../../../../nios2-elf/lib/mno-hw-mul\libc.a(lib_a-strlen.o)
 .comment       0x00000000       0x24 c:/altera/12.1/nios2eds/bin/gnu/h-i686-mingw32/bin/../lib/gcc/nios2-elf/4.1.2/../../../../nios2-elf/lib/mno-hw-mul\libc.a(lib_a-vfprintf.o)
 .comment       0x00000000       0x24 c:/altera/12.1/nios2eds/bin/gnu/h-i686-mingw32/bin/../lib/gcc/nios2-elf/4.1.2/../../../../nios2-elf/lib/mno-hw-mul\libc.a(lib_a-wsetup.o)
 .comment       0x00000000       0x24 c:/altera/12.1/nios2eds/bin/gnu/h-i686-mingw32/bin/../lib/gcc/nios2-elf/4.1.2/../../../../nios2-elf/lib/mno-hw-mul\libc.a(lib_a-dtoa.o)
 .comment       0x00000000       0x24 c:/altera/12.1/nios2eds/bin/gnu/h-i686-mingw32/bin/../lib/gcc/nios2-elf/4.1.2/../../../../nios2-elf/lib/mno-hw-mul\libc.a(lib_a-fflush.o)
 .comment       0x00000000       0x24 c:/altera/12.1/nios2eds/bin/gnu/h-i686-mingw32/bin/../lib/gcc/nios2-elf/4.1.2/../../../../nios2-elf/lib/mno-hw-mul\libc.a(lib_a-findfp.o)
 .comment       0x00000000       0x24 c:/altera/12.1/nios2eds/bin/gnu/h-i686-mingw32/bin/../lib/gcc/nios2-elf/4.1.2/../../../../nios2-elf/lib/mno-hw-mul\libc.a(lib_a-freer.o)
 .comment       0x00000000       0x24 c:/altera/12.1/nios2eds/bin/gnu/h-i686-mingw32/bin/../lib/gcc/nios2-elf/4.1.2/../../../../nios2-elf/lib/mno-hw-mul\libc.a(lib_a-fvwrite.o)
 .comment       0x00000000       0x24 c:/altera/12.1/nios2eds/bin/gnu/h-i686-mingw32/bin/../lib/gcc/nios2-elf/4.1.2/../../../../nios2-elf/lib/mno-hw-mul\libc.a(lib_a-fwalk.o)
 .comment       0x00000000       0x24 c:/altera/12.1/nios2eds/bin/gnu/h-i686-mingw32/bin/../lib/gcc/nios2-elf/4.1.2/../../../../nios2-elf/lib/mno-hw-mul\libc.a(lib_a-impure.o)
 .comment       0x00000000       0x24 c:/altera/12.1/nios2eds/bin/gnu/h-i686-mingw32/bin/../lib/gcc/nios2-elf/4.1.2/../../../../nios2-elf/lib/mno-hw-mul\libc.a(lib_a-locale.o)
 .comment       0x00000000       0x24 c:/altera/12.1/nios2eds/bin/gnu/h-i686-mingw32/bin/../lib/gcc/nios2-elf/4.1.2/../../../../nios2-elf/lib/mno-hw-mul\libc.a(lib_a-makebuf.o)
 .comment       0x00000000       0x24 c:/altera/12.1/nios2eds/bin/gnu/h-i686-mingw32/bin/../lib/gcc/nios2-elf/4.1.2/../../../../nios2-elf/lib/mno-hw-mul\libc.a(lib_a-mallocr.o)
 .comment       0x00000000       0x24 c:/altera/12.1/nios2eds/bin/gnu/h-i686-mingw32/bin/../lib/gcc/nios2-elf/4.1.2/../../../../nios2-elf/lib/mno-hw-mul\libc.a(lib_a-memchr.o)
 .comment       0x00000000       0x24 c:/altera/12.1/nios2eds/bin/gnu/h-i686-mingw32/bin/../lib/gcc/nios2-elf/4.1.2/../../../../nios2-elf/lib/mno-hw-mul\libc.a(lib_a-memcpy.o)
 .comment       0x00000000       0x24 c:/altera/12.1/nios2eds/bin/gnu/h-i686-mingw32/bin/../lib/gcc/nios2-elf/4.1.2/../../../../nios2-elf/lib/mno-hw-mul\libc.a(lib_a-memmove.o)
 .comment       0x00000000       0x24 c:/altera/12.1/nios2eds/bin/gnu/h-i686-mingw32/bin/../lib/gcc/nios2-elf/4.1.2/../../../../nios2-elf/lib/mno-hw-mul\libc.a(lib_a-memset.o)
 .comment       0x00000000       0x24 c:/altera/12.1/nios2eds/bin/gnu/h-i686-mingw32/bin/../lib/gcc/nios2-elf/4.1.2/../../../../nios2-elf/lib/mno-hw-mul\libc.a(lib_a-mprec.o)
 .comment       0x00000000       0x24 c:/altera/12.1/nios2eds/bin/gnu/h-i686-mingw32/bin/../lib/gcc/nios2-elf/4.1.2/../../../../nios2-elf/lib/mno-hw-mul\libc.a(lib_a-reallocr.o)
 .comment       0x00000000       0x24 c:/altera/12.1/nios2eds/bin/gnu/h-i686-mingw32/bin/../lib/gcc/nios2-elf/4.1.2/../../../../nios2-elf/lib/mno-hw-mul\libc.a(lib_a-s_isinfd.o)
 .comment       0x00000000       0x24 c:/altera/12.1/nios2eds/bin/gnu/h-i686-mingw32/bin/../lib/gcc/nios2-elf/4.1.2/../../../../nios2-elf/lib/mno-hw-mul\libc.a(lib_a-s_isnand.o)
 .comment       0x00000000       0x24 c:/altera/12.1/nios2eds/bin/gnu/h-i686-mingw32/bin/../lib/gcc/nios2-elf/4.1.2/../../../../nios2-elf/lib/mno-hw-mul\libc.a(lib_a-sbrkr.o)
 .comment       0x00000000       0x24 c:/altera/12.1/nios2eds/bin/gnu/h-i686-mingw32/bin/../lib/gcc/nios2-elf/4.1.2/../../../../nios2-elf/lib/mno-hw-mul\libc.a(lib_a-stdio.o)
 .comment       0x00000000       0x24 c:/altera/12.1/nios2eds/bin/gnu/h-i686-mingw32/bin/../lib/gcc/nios2-elf/4.1.2/../../../../nios2-elf/lib/mno-hw-mul\libc.a(lib_a-strcmp.o)
 .comment       0x00000000       0x24 c:/altera/12.1/nios2eds/bin/gnu/h-i686-mingw32/bin/../lib/gcc/nios2-elf/4.1.2/../../../../nios2-elf/lib/mno-hw-mul\libc.a(lib_a-writer.o)
 .comment       0x00000000       0x24 c:/altera/12.1/nios2eds/bin/gnu/h-i686-mingw32/bin/../lib/gcc/nios2-elf/4.1.2/../../../../nios2-elf/lib/mno-hw-mul\libc.a(lib_a-callocr.o)
 .comment       0x00000000       0x24 c:/altera/12.1/nios2eds/bin/gnu/h-i686-mingw32/bin/../lib/gcc/nios2-elf/4.1.2/../../../../nios2-elf/lib/mno-hw-mul\libc.a(lib_a-closer.o)
 .comment       0x00000000       0x24 c:/altera/12.1/nios2eds/bin/gnu/h-i686-mingw32/bin/../lib/gcc/nios2-elf/4.1.2/../../../../nios2-elf/lib/mno-hw-mul\libc.a(lib_a-fclose.o)
 .comment       0x00000000       0x24 c:/altera/12.1/nios2eds/bin/gnu/h-i686-mingw32/bin/../lib/gcc/nios2-elf/4.1.2/../../../../nios2-elf/lib/mno-hw-mul\libc.a(lib_a-fstatr.o)
 .comment       0x00000000       0x24 c:/altera/12.1/nios2eds/bin/gnu/h-i686-mingw32/bin/../lib/gcc/nios2-elf/4.1.2/../../../../nios2-elf/lib/mno-hw-mul\libc.a(lib_a-int_errno.o)
 .comment       0x00000000       0x24 c:/altera/12.1/nios2eds/bin/gnu/h-i686-mingw32/bin/../lib/gcc/nios2-elf/4.1.2/../../../../nios2-elf/lib/mno-hw-mul\libc.a(lib_a-isattyr.o)
 .comment       0x00000000       0x24 c:/altera/12.1/nios2eds/bin/gnu/h-i686-mingw32/bin/../lib/gcc/nios2-elf/4.1.2/../../../../nios2-elf/lib/mno-hw-mul\libc.a(lib_a-lseekr.o)
 .comment       0x00000000       0x24 c:/altera/12.1/nios2eds/bin/gnu/h-i686-mingw32/bin/../lib/gcc/nios2-elf/4.1.2/../../../../nios2-elf/lib/mno-hw-mul\libc.a(lib_a-readr.o)
 .comment       0x00000000       0x24 c:/altera/12.1/nios2eds/bin/gnu/h-i686-mingw32/bin/../lib/gcc/nios2-elf/4.1.2/mno-hw-mul\libgcc.a(_udivdi3.o)
 .comment       0x00000000       0x24 c:/altera/12.1/nios2eds/bin/gnu/h-i686-mingw32/bin/../lib/gcc/nios2-elf/4.1.2/mno-hw-mul\libgcc.a(_umoddi3.o)
 .comment       0x00000000       0x24 c:/altera/12.1/nios2eds/bin/gnu/h-i686-mingw32/bin/../lib/gcc/nios2-elf/4.1.2/mno-hw-mul\libgcc.a(_addsub_df.o)
 .comment       0x00000000       0x24 c:/altera/12.1/nios2eds/bin/gnu/h-i686-mingw32/bin/../lib/gcc/nios2-elf/4.1.2/mno-hw-mul\libgcc.a(_mul_df.o)
 .comment       0x00000000       0x24 c:/altera/12.1/nios2eds/bin/gnu/h-i686-mingw32/bin/../lib/gcc/nios2-elf/4.1.2/mno-hw-mul\libgcc.a(_div_df.o)
 .comment       0x00000000       0x24 c:/altera/12.1/nios2eds/bin/gnu/h-i686-mingw32/bin/../lib/gcc/nios2-elf/4.1.2/mno-hw-mul\libgcc.a(_eq_df.o)
 .comment       0x00000000       0x24 c:/altera/12.1/nios2eds/bin/gnu/h-i686-mingw32/bin/../lib/gcc/nios2-elf/4.1.2/mno-hw-mul\libgcc.a(_ne_df.o)
 .comment       0x00000000       0x24 c:/altera/12.1/nios2eds/bin/gnu/h-i686-mingw32/bin/../lib/gcc/nios2-elf/4.1.2/mno-hw-mul\libgcc.a(_gt_df.o)
 .comment       0x00000000       0x24 c:/altera/12.1/nios2eds/bin/gnu/h-i686-mingw32/bin/../lib/gcc/nios2-elf/4.1.2/mno-hw-mul\libgcc.a(_ge_df.o)
 .comment       0x00000000       0x24 c:/altera/12.1/nios2eds/bin/gnu/h-i686-mingw32/bin/../lib/gcc/nios2-elf/4.1.2/mno-hw-mul\libgcc.a(_lt_df.o)
 .comment       0x00000000       0x24 c:/altera/12.1/nios2eds/bin/gnu/h-i686-mingw32/bin/../lib/gcc/nios2-elf/4.1.2/mno-hw-mul\libgcc.a(_si_to_df.o)
 .comment       0x00000000       0x24 c:/altera/12.1/nios2eds/bin/gnu/h-i686-mingw32/bin/../lib/gcc/nios2-elf/4.1.2/mno-hw-mul\libgcc.a(_df_to_si.o)
 .comment       0x00000000       0x24 c:/altera/12.1/nios2eds/bin/gnu/h-i686-mingw32/bin/../lib/gcc/nios2-elf/4.1.2/mno-hw-mul\libgcc.a(_thenan_df.o)
 .comment       0x00000000       0x24 c:/altera/12.1/nios2eds/bin/gnu/h-i686-mingw32/bin/../lib/gcc/nios2-elf/4.1.2/mno-hw-mul\libgcc.a(_usi_to_df.o)
 .comment       0x00000000       0x24 c:/altera/12.1/nios2eds/bin/gnu/h-i686-mingw32/bin/../lib/gcc/nios2-elf/4.1.2/mno-hw-mul\libgcc.a(_muldi3.o)
 .comment       0x00000000       0x24 c:/altera/12.1/nios2eds/bin/gnu/h-i686-mingw32/bin/../lib/gcc/nios2-elf/4.1.2/mno-hw-mul\libgcc.a(_clz.o)
 .comment       0x00000000       0x24 c:/altera/12.1/nios2eds/bin/gnu/h-i686-mingw32/bin/../lib/gcc/nios2-elf/4.1.2/mno-hw-mul\libgcc.a(_clzsi2.o)
 .comment       0x00000000       0x24 c:/altera/12.1/nios2eds/bin/gnu/h-i686-mingw32/bin/../lib/gcc/nios2-elf/4.1.2/mno-hw-mul\libgcc.a(_pack_df.o)
 .comment       0x00000000       0x24 c:/altera/12.1/nios2eds/bin/gnu/h-i686-mingw32/bin/../lib/gcc/nios2-elf/4.1.2/mno-hw-mul\libgcc.a(_unpack_df.o)
 .comment       0x00000000       0x24 c:/altera/12.1/nios2eds/bin/gnu/h-i686-mingw32/bin/../lib/gcc/nios2-elf/4.1.2/mno-hw-mul\libgcc.a(_fpcmp_parts_df.o)
 .comment       0x00000000       0x24 C:/work/fpga/nios2_camera_sdram_lcd/prj_eclipse/nios2_camera_sdram_lcd_bsp/\libhal_bsp.a(alt_close.o)
 .comment       0x00000000       0x24 C:/work/fpga/nios2_camera_sdram_lcd/prj_eclipse/nios2_camera_sdram_lcd_bsp/\libhal_bsp.a(alt_dev.o)
 .comment       0x00000000       0x24 C:/work/fpga/nios2_camera_sdram_lcd/prj_eclipse/nios2_camera_sdram_lcd_bsp/\libhal_bsp.a(alt_errno.o)
 .comment       0x00000000       0x24 C:/work/fpga/nios2_camera_sdram_lcd/prj_eclipse/nios2_camera_sdram_lcd_bsp/\libhal_bsp.a(alt_fstat.o)
 .comment       0x00000000       0x24 C:/work/fpga/nios2_camera_sdram_lcd/prj_eclipse/nios2_camera_sdram_lcd_bsp/\libhal_bsp.a(alt_iic.o)
 .comment       0x00000000       0x24 C:/work/fpga/nios2_camera_sdram_lcd/prj_eclipse/nios2_camera_sdram_lcd_bsp/\libhal_bsp.a(alt_iic_isr_register.o)
 .comment       0x00000000       0x24 C:/work/fpga/nios2_camera_sdram_lcd/prj_eclipse/nios2_camera_sdram_lcd_bsp/\libhal_bsp.a(alt_irq_handler.o)
 .comment       0x00000000       0x24 C:/work/fpga/nios2_camera_sdram_lcd/prj_eclipse/nios2_camera_sdram_lcd_bsp/\libhal_bsp.a(alt_irq_vars.o)
 .comment       0x00000000       0x24 C:/work/fpga/nios2_camera_sdram_lcd/prj_eclipse/nios2_camera_sdram_lcd_bsp/\libhal_bsp.a(alt_isatty.o)
 .comment       0x00000000       0x24 C:/work/fpga/nios2_camera_sdram_lcd/prj_eclipse/nios2_camera_sdram_lcd_bsp/\libhal_bsp.a(alt_load.o)
 .comment       0x00000000       0x24 C:/work/fpga/nios2_camera_sdram_lcd/prj_eclipse/nios2_camera_sdram_lcd_bsp/\libhal_bsp.a(alt_lseek.o)
 .comment       0x00000000       0x24 C:/work/fpga/nios2_camera_sdram_lcd/prj_eclipse/nios2_camera_sdram_lcd_bsp/\libhal_bsp.a(alt_main.o)
 .comment       0x00000000       0x24 C:/work/fpga/nios2_camera_sdram_lcd/prj_eclipse/nios2_camera_sdram_lcd_bsp/\libhal_bsp.a(alt_malloc_lock.o)
 .comment       0x00000000       0x24 C:/work/fpga/nios2_camera_sdram_lcd/prj_eclipse/nios2_camera_sdram_lcd_bsp/\libhal_bsp.a(alt_read.o)
 .comment       0x00000000       0x24 C:/work/fpga/nios2_camera_sdram_lcd/prj_eclipse/nios2_camera_sdram_lcd_bsp/\libhal_bsp.a(alt_release_fd.o)
 .comment       0x00000000       0x24 C:/work/fpga/nios2_camera_sdram_lcd/prj_eclipse/nios2_camera_sdram_lcd_bsp/\libhal_bsp.a(alt_sbrk.o)
 .comment       0x00000000       0x24 C:/work/fpga/nios2_camera_sdram_lcd/prj_eclipse/nios2_camera_sdram_lcd_bsp/\libhal_bsp.a(alt_usleep.o)
 .comment       0x00000000       0x24 C:/work/fpga/nios2_camera_sdram_lcd/prj_eclipse/nios2_camera_sdram_lcd_bsp/\libhal_bsp.a(alt_write.o)
 .comment       0x00000000       0x24 C:/work/fpga/nios2_camera_sdram_lcd/prj_eclipse/nios2_camera_sdram_lcd_bsp/\libhal_bsp.a(alt_sys_init.o)
 .comment       0x00000000       0x24 C:/work/fpga/nios2_camera_sdram_lcd/prj_eclipse/nios2_camera_sdram_lcd_bsp/\libhal_bsp.a(altera_avalon_jtag_uart_fd.o)
 .comment       0x00000000       0x24 C:/work/fpga/nios2_camera_sdram_lcd/prj_eclipse/nios2_camera_sdram_lcd_bsp/\libhal_bsp.a(altera_avalon_jtag_uart_init.o)
 .comment       0x00000000       0x24 C:/work/fpga/nios2_camera_sdram_lcd/prj_eclipse/nios2_camera_sdram_lcd_bsp/\libhal_bsp.a(altera_avalon_jtag_uart_ioctl.o)
 .comment       0x00000000       0x24 C:/work/fpga/nios2_camera_sdram_lcd/prj_eclipse/nios2_camera_sdram_lcd_bsp/\libhal_bsp.a(altera_avalon_jtag_uart_read.o)
 .comment       0x00000000       0x24 C:/work/fpga/nios2_camera_sdram_lcd/prj_eclipse/nios2_camera_sdram_lcd_bsp/\libhal_bsp.a(altera_avalon_jtag_uart_write.o)
 .comment       0x00000000       0x24 C:/work/fpga/nios2_camera_sdram_lcd/prj_eclipse/nios2_camera_sdram_lcd_bsp/\libhal_bsp.a(alt_alarm_start.o)
 .comment       0x00000000       0x24 C:/work/fpga/nios2_camera_sdram_lcd/prj_eclipse/nios2_camera_sdram_lcd_bsp/\libhal_bsp.a(alt_busy_sleep.o)
 .comment       0x00000000       0x24 C:/work/fpga/nios2_camera_sdram_lcd/prj_eclipse/nios2_camera_sdram_lcd_bsp/\libhal_bsp.a(alt_dcache_flush_all.o)
 .comment       0x00000000       0x24 C:/work/fpga/nios2_camera_sdram_lcd/prj_eclipse/nios2_camera_sdram_lcd_bsp/\libhal_bsp.a(alt_dev_llist_insert.o)
 .comment       0x00000000       0x24 C:/work/fpga/nios2_camera_sdram_lcd/prj_eclipse/nios2_camera_sdram_lcd_bsp/\libhal_bsp.a(alt_do_ctors.o)
 .comment       0x00000000       0x24 C:/work/fpga/nios2_camera_sdram_lcd/prj_eclipse/nios2_camera_sdram_lcd_bsp/\libhal_bsp.a(alt_do_dtors.o)
 .comment       0x00000000       0x24 C:/work/fpga/nios2_camera_sdram_lcd/prj_eclipse/nios2_camera_sdram_lcd_bsp/\libhal_bsp.a(alt_icache_flush_all.o)
 .comment       0x00000000       0x24 C:/work/fpga/nios2_camera_sdram_lcd/prj_eclipse/nios2_camera_sdram_lcd_bsp/\libhal_bsp.a(alt_io_redirect.o)
 .comment       0x00000000       0x24 C:/work/fpga/nios2_camera_sdram_lcd/prj_eclipse/nios2_camera_sdram_lcd_bsp/\libhal_bsp.a(alt_open.o)
 .comment       0x00000000       0x24 C:/work/fpga/nios2_camera_sdram_lcd/prj_eclipse/nios2_camera_sdram_lcd_bsp/\libhal_bsp.a(alt_tick.o)
 .comment       0x00000000       0x24 C:/work/fpga/nios2_camera_sdram_lcd/prj_eclipse/nios2_camera_sdram_lcd_bsp/\libhal_bsp.a(altera_nios2_qsys_irq.o)
 .comment       0x00000000       0x24 C:/work/fpga/nios2_camera_sdram_lcd/prj_eclipse/nios2_camera_sdram_lcd_bsp/\libhal_bsp.a(alt_find_dev.o)
 .comment       0x00000000       0x24 C:/work/fpga/nios2_camera_sdram_lcd/prj_eclipse/nios2_camera_sdram_lcd_bsp/\libhal_bsp.a(alt_find_file.o)
 .comment       0x00000000       0x24 C:/work/fpga/nios2_camera_sdram_lcd/prj_eclipse/nios2_camera_sdram_lcd_bsp/\libhal_bsp.a(alt_get_fd.o)
 .comment       0x00000000       0x24 c:/altera/12.1/nios2eds/bin/gnu/h-i686-mingw32/bin/../lib/gcc/nios2-elf/4.1.2/../../../../nios2-elf/lib/mno-hw-mul\libc.a(lib_a-atexit.o)
 .comment       0x00000000       0x24 c:/altera/12.1/nios2eds/bin/gnu/h-i686-mingw32/bin/../lib/gcc/nios2-elf/4.1.2/../../../../nios2-elf/lib/mno-hw-mul\libc.a(lib_a-exit.o)
 .comment       0x00000000       0x24 c:/altera/12.1/nios2eds/bin/gnu/h-i686-mingw32/bin/../lib/gcc/nios2-elf/4.1.2/../../../../nios2-elf/lib/mno-hw-mul\libc.a(lib_a-memcmp.o)
 .comment       0x00000000       0x24 c:/altera/12.1/nios2eds/bin/gnu/h-i686-mingw32/bin/../lib/gcc/nios2-elf/4.1.2/../../../../nios2-elf/lib/mno-hw-mul\libc.a(lib_a-__atexit.o)
 .comment       0x00000000       0x24 c:/altera/12.1/nios2eds/bin/gnu/h-i686-mingw32/bin/../lib/gcc/nios2-elf/4.1.2/../../../../nios2-elf/lib/mno-hw-mul\libc.a(lib_a-__call_atexit.o)
 .comment       0x00000000       0x24 C:/work/fpga/nios2_camera_sdram_lcd/prj_eclipse/nios2_camera_sdram_lcd_bsp/\libhal_bsp.a(alt_exit.o)

.debug
 *(.debug)

.line
 *(.line)

.debug_srcinfo
 *(.debug_srcinfo)

.debug_sfnames
 *(.debug_sfnames)

.debug_aranges  0x00000000      0xcd8
 *(.debug_aranges)
 .debug_aranges
                0x00000000       0x28 C:/work/fpga/nios2_camera_sdram_lcd/prj_eclipse/nios2_camera_sdram_lcd_bsp//obj/HAL/src/crt0.o
 .debug_aranges
                0x00000028       0x20 obj/default/avalon_isp_algo_2a.o
 .debug_aranges
                0x00000048       0x20 obj/default/hello_world.o
 .debug_aranges
                0x00000068       0x20 obj/default/ov5640_drv.o
 .debug_aranges
                0x00000088       0x20 c:/altera/12.1/nios2eds/bin/gnu/h-i686-mingw32/bin/../lib/gcc/nios2-elf/4.1.2/mno-hw-mul\libgcc.a(lib2-divmod.o)
 .debug_aranges
                0x000000a8       0x20 c:/altera/12.1/nios2eds/bin/gnu/h-i686-mingw32/bin/../lib/gcc/nios2-elf/4.1.2/mno-hw-mul\libgcc.a(lib2-mul.o)
 .debug_aranges
                0x000000c8       0x20 c:/altera/12.1/nios2eds/bin/gnu/h-i686-mingw32/bin/../lib/gcc/nios2-elf/4.1.2/../../../../nios2-elf/lib/mno-hw-mul\libc.a(lib_a-printf.o)
 .debug_aranges
                0x000000e8       0x20 c:/altera/12.1/nios2eds/bin/gnu/h-i686-mingw32/bin/../lib/gcc/nios2-elf/4.1.2/../../../../nios2-elf/lib/mno-hw-mul\libc.a(lib_a-puts.o)
 .debug_aranges
                0x00000108       0x20 c:/altera/12.1/nios2eds/bin/gnu/h-i686-mingw32/bin/../lib/gcc/nios2-elf/4.1.2/../../../../nios2-elf/lib/mno-hw-mul\libc.a(lib_a-strlen.o)
 .debug_aranges
                0x00000128       0x20 c:/altera/12.1/nios2eds/bin/gnu/h-i686-mingw32/bin/../lib/gcc/nios2-elf/4.1.2/../../../../nios2-elf/lib/mno-hw-mul\libc.a(lib_a-vfprintf.o)
 .debug_aranges
                0x00000148       0x20 c:/altera/12.1/nios2eds/bin/gnu/h-i686-mingw32/bin/../lib/gcc/nios2-elf/4.1.2/../../../../nios2-elf/lib/mno-hw-mul\libc.a(lib_a-wsetup.o)
 .debug_aranges
                0x00000168       0x20 c:/altera/12.1/nios2eds/bin/gnu/h-i686-mingw32/bin/../lib/gcc/nios2-elf/4.1.2/../../../../nios2-elf/lib/mno-hw-mul\libc.a(lib_a-dtoa.o)
 .debug_aranges
                0x00000188       0x20 c:/altera/12.1/nios2eds/bin/gnu/h-i686-mingw32/bin/../lib/gcc/nios2-elf/4.1.2/../../../../nios2-elf/lib/mno-hw-mul\libc.a(lib_a-fflush.o)
 .debug_aranges
                0x000001a8       0x20 c:/altera/12.1/nios2eds/bin/gnu/h-i686-mingw32/bin/../lib/gcc/nios2-elf/4.1.2/../../../../nios2-elf/lib/mno-hw-mul\libc.a(lib_a-findfp.o)
 .debug_aranges
                0x000001c8       0x20 c:/altera/12.1/nios2eds/bin/gnu/h-i686-mingw32/bin/../lib/gcc/nios2-elf/4.1.2/../../../../nios2-elf/lib/mno-hw-mul\libc.a(lib_a-freer.o)
 .debug_aranges
                0x000001e8       0x20 c:/altera/12.1/nios2eds/bin/gnu/h-i686-mingw32/bin/../lib/gcc/nios2-elf/4.1.2/../../../../nios2-elf/lib/mno-hw-mul\libc.a(lib_a-fvwrite.o)
 .debug_aranges
                0x00000208       0x20 c:/altera/12.1/nios2eds/bin/gnu/h-i686-mingw32/bin/../lib/gcc/nios2-elf/4.1.2/../../../../nios2-elf/lib/mno-hw-mul\libc.a(lib_a-fwalk.o)
 .debug_aranges
                0x00000228       0x20 c:/altera/12.1/nios2eds/bin/gnu/h-i686-mingw32/bin/../lib/gcc/nios2-elf/4.1.2/../../../../nios2-elf/lib/mno-hw-mul\libc.a(lib_a-locale.o)
 .debug_aranges
                0x00000248       0x20 c:/altera/12.1/nios2eds/bin/gnu/h-i686-mingw32/bin/../lib/gcc/nios2-elf/4.1.2/../../../../nios2-elf/lib/mno-hw-mul\libc.a(lib_a-makebuf.o)
 .debug_aranges
                0x00000268       0x20 c:/altera/12.1/nios2eds/bin/gnu/h-i686-mingw32/bin/../lib/gcc/nios2-elf/4.1.2/../../../../nios2-elf/lib/mno-hw-mul\libc.a(lib_a-mallocr.o)
 .debug_aranges
                0x00000288       0x20 c:/altera/12.1/nios2eds/bin/gnu/h-i686-mingw32/bin/../lib/gcc/nios2-elf/4.1.2/../../../../nios2-elf/lib/mno-hw-mul\libc.a(lib_a-memchr.o)
 .debug_aranges
                0x000002a8       0x20 c:/altera/12.1/nios2eds/bin/gnu/h-i686-mingw32/bin/../lib/gcc/nios2-elf/4.1.2/../../../../nios2-elf/lib/mno-hw-mul\libc.a(lib_a-memcpy.o)
 .debug_aranges
                0x000002c8       0x20 c:/altera/12.1/nios2eds/bin/gnu/h-i686-mingw32/bin/../lib/gcc/nios2-elf/4.1.2/../../../../nios2-elf/lib/mno-hw-mul\libc.a(lib_a-memmove.o)
 .debug_aranges
                0x000002e8       0x20 c:/altera/12.1/nios2eds/bin/gnu/h-i686-mingw32/bin/../lib/gcc/nios2-elf/4.1.2/../../../../nios2-elf/lib/mno-hw-mul\libc.a(lib_a-memset.o)
 .debug_aranges
                0x00000308       0x20 c:/altera/12.1/nios2eds/bin/gnu/h-i686-mingw32/bin/../lib/gcc/nios2-elf/4.1.2/../../../../nios2-elf/lib/mno-hw-mul\libc.a(lib_a-mprec.o)
 .debug_aranges
                0x00000328       0x20 c:/altera/12.1/nios2eds/bin/gnu/h-i686-mingw32/bin/../lib/gcc/nios2-elf/4.1.2/../../../../nios2-elf/lib/mno-hw-mul\libc.a(lib_a-reallocr.o)
 .debug_aranges
                0x00000348       0x20 c:/altera/12.1/nios2eds/bin/gnu/h-i686-mingw32/bin/../lib/gcc/nios2-elf/4.1.2/../../../../nios2-elf/lib/mno-hw-mul\libc.a(lib_a-s_isinfd.o)
 .debug_aranges
                0x00000368       0x20 c:/altera/12.1/nios2eds/bin/gnu/h-i686-mingw32/bin/../lib/gcc/nios2-elf/4.1.2/../../../../nios2-elf/lib/mno-hw-mul\libc.a(lib_a-s_isnand.o)
 .debug_aranges
                0x00000388       0x20 c:/altera/12.1/nios2eds/bin/gnu/h-i686-mingw32/bin/../lib/gcc/nios2-elf/4.1.2/../../../../nios2-elf/lib/mno-hw-mul\libc.a(lib_a-sbrkr.o)
 .debug_aranges
                0x000003a8       0x20 c:/altera/12.1/nios2eds/bin/gnu/h-i686-mingw32/bin/../lib/gcc/nios2-elf/4.1.2/../../../../nios2-elf/lib/mno-hw-mul\libc.a(lib_a-stdio.o)
 .debug_aranges
                0x000003c8       0x20 c:/altera/12.1/nios2eds/bin/gnu/h-i686-mingw32/bin/../lib/gcc/nios2-elf/4.1.2/../../../../nios2-elf/lib/mno-hw-mul\libc.a(lib_a-strcmp.o)
 .debug_aranges
                0x000003e8       0x20 c:/altera/12.1/nios2eds/bin/gnu/h-i686-mingw32/bin/../lib/gcc/nios2-elf/4.1.2/../../../../nios2-elf/lib/mno-hw-mul\libc.a(lib_a-writer.o)
 .debug_aranges
                0x00000408       0x20 c:/altera/12.1/nios2eds/bin/gnu/h-i686-mingw32/bin/../lib/gcc/nios2-elf/4.1.2/../../../../nios2-elf/lib/mno-hw-mul\libc.a(lib_a-callocr.o)
 .debug_aranges
                0x00000428       0x20 c:/altera/12.1/nios2eds/bin/gnu/h-i686-mingw32/bin/../lib/gcc/nios2-elf/4.1.2/../../../../nios2-elf/lib/mno-hw-mul\libc.a(lib_a-closer.o)
 .debug_aranges
                0x00000448       0x20 c:/altera/12.1/nios2eds/bin/gnu/h-i686-mingw32/bin/../lib/gcc/nios2-elf/4.1.2/../../../../nios2-elf/lib/mno-hw-mul\libc.a(lib_a-fclose.o)
 .debug_aranges
                0x00000468       0x20 c:/altera/12.1/nios2eds/bin/gnu/h-i686-mingw32/bin/../lib/gcc/nios2-elf/4.1.2/../../../../nios2-elf/lib/mno-hw-mul\libc.a(lib_a-fstatr.o)
 .debug_aranges
                0x00000488       0x20 c:/altera/12.1/nios2eds/bin/gnu/h-i686-mingw32/bin/../lib/gcc/nios2-elf/4.1.2/../../../../nios2-elf/lib/mno-hw-mul\libc.a(lib_a-isattyr.o)
 .debug_aranges
                0x000004a8       0x20 c:/altera/12.1/nios2eds/bin/gnu/h-i686-mingw32/bin/../lib/gcc/nios2-elf/4.1.2/../../../../nios2-elf/lib/mno-hw-mul\libc.a(lib_a-lseekr.o)
 .debug_aranges
                0x000004c8       0x20 c:/altera/12.1/nios2eds/bin/gnu/h-i686-mingw32/bin/../lib/gcc/nios2-elf/4.1.2/../../../../nios2-elf/lib/mno-hw-mul\libc.a(lib_a-readr.o)
 .debug_aranges
                0x000004e8       0x20 c:/altera/12.1/nios2eds/bin/gnu/h-i686-mingw32/bin/../lib/gcc/nios2-elf/4.1.2/mno-hw-mul\libgcc.a(_udivdi3.o)
 .debug_aranges
                0x00000508       0x20 c:/altera/12.1/nios2eds/bin/gnu/h-i686-mingw32/bin/../lib/gcc/nios2-elf/4.1.2/mno-hw-mul\libgcc.a(_umoddi3.o)
 .debug_aranges
                0x00000528       0x20 c:/altera/12.1/nios2eds/bin/gnu/h-i686-mingw32/bin/../lib/gcc/nios2-elf/4.1.2/mno-hw-mul\libgcc.a(_addsub_df.o)
 .debug_aranges
                0x00000548       0x20 c:/altera/12.1/nios2eds/bin/gnu/h-i686-mingw32/bin/../lib/gcc/nios2-elf/4.1.2/mno-hw-mul\libgcc.a(_mul_df.o)
 .debug_aranges
                0x00000568       0x20 c:/altera/12.1/nios2eds/bin/gnu/h-i686-mingw32/bin/../lib/gcc/nios2-elf/4.1.2/mno-hw-mul\libgcc.a(_div_df.o)
 .debug_aranges
                0x00000588       0x20 c:/altera/12.1/nios2eds/bin/gnu/h-i686-mingw32/bin/../lib/gcc/nios2-elf/4.1.2/mno-hw-mul\libgcc.a(_eq_df.o)
 .debug_aranges
                0x000005a8       0x20 c:/altera/12.1/nios2eds/bin/gnu/h-i686-mingw32/bin/../lib/gcc/nios2-elf/4.1.2/mno-hw-mul\libgcc.a(_ne_df.o)
 .debug_aranges
                0x000005c8       0x20 c:/altera/12.1/nios2eds/bin/gnu/h-i686-mingw32/bin/../lib/gcc/nios2-elf/4.1.2/mno-hw-mul\libgcc.a(_gt_df.o)
 .debug_aranges
                0x000005e8       0x20 c:/altera/12.1/nios2eds/bin/gnu/h-i686-mingw32/bin/../lib/gcc/nios2-elf/4.1.2/mno-hw-mul\libgcc.a(_ge_df.o)
 .debug_aranges
                0x00000608       0x20 c:/altera/12.1/nios2eds/bin/gnu/h-i686-mingw32/bin/../lib/gcc/nios2-elf/4.1.2/mno-hw-mul\libgcc.a(_lt_df.o)
 .debug_aranges
                0x00000628       0x20 c:/altera/12.1/nios2eds/bin/gnu/h-i686-mingw32/bin/../lib/gcc/nios2-elf/4.1.2/mno-hw-mul\libgcc.a(_si_to_df.o)
 .debug_aranges
                0x00000648       0x20 c:/altera/12.1/nios2eds/bin/gnu/h-i686-mingw32/bin/../lib/gcc/nios2-elf/4.1.2/mno-hw-mul\libgcc.a(_df_to_si.o)
 .debug_aranges
                0x00000668       0x20 c:/altera/12.1/nios2eds/bin/gnu/h-i686-mingw32/bin/../lib/gcc/nios2-elf/4.1.2/mno-hw-mul\libgcc.a(_usi_to_df.o)
 .debug_aranges
                0x00000688       0x20 c:/altera/12.1/nios2eds/bin/gnu/h-i686-mingw32/bin/../lib/gcc/nios2-elf/4.1.2/mno-hw-mul\libgcc.a(_muldi3.o)
 .debug_aranges
                0x000006a8       0x20 c:/altera/12.1/nios2eds/bin/gnu/h-i686-mingw32/bin/../lib/gcc/nios2-elf/4.1.2/mno-hw-mul\libgcc.a(_clzsi2.o)
 .debug_aranges
                0x000006c8       0x20 c:/altera/12.1/nios2eds/bin/gnu/h-i686-mingw32/bin/../lib/gcc/nios2-elf/4.1.2/mno-hw-mul\libgcc.a(_pack_df.o)
 .debug_aranges
                0x000006e8       0x20 c:/altera/12.1/nios2eds/bin/gnu/h-i686-mingw32/bin/../lib/gcc/nios2-elf/4.1.2/mno-hw-mul\libgcc.a(_unpack_df.o)
 .debug_aranges
                0x00000708       0x20 c:/altera/12.1/nios2eds/bin/gnu/h-i686-mingw32/bin/../lib/gcc/nios2-elf/4.1.2/mno-hw-mul\libgcc.a(_fpcmp_parts_df.o)
 .debug_aranges
                0x00000728       0x20 C:/work/fpga/nios2_camera_sdram_lcd/prj_eclipse/nios2_camera_sdram_lcd_bsp/\libhal_bsp.a(alt_close.o)
 .debug_aranges
                0x00000748       0x20 C:/work/fpga/nios2_camera_sdram_lcd/prj_eclipse/nios2_camera_sdram_lcd_bsp/\libhal_bsp.a(alt_dev.o)
 .debug_aranges
                0x00000768       0x20 C:/work/fpga/nios2_camera_sdram_lcd/prj_eclipse/nios2_camera_sdram_lcd_bsp/\libhal_bsp.a(alt_fstat.o)
 .debug_aranges
                0x00000788       0x20 C:/work/fpga/nios2_camera_sdram_lcd/prj_eclipse/nios2_camera_sdram_lcd_bsp/\libhal_bsp.a(alt_iic.o)
 .debug_aranges
                0x000007a8       0x20 C:/work/fpga/nios2_camera_sdram_lcd/prj_eclipse/nios2_camera_sdram_lcd_bsp/\libhal_bsp.a(alt_iic_isr_register.o)
 .debug_aranges
                0x000007c8       0x30 C:/work/fpga/nios2_camera_sdram_lcd/prj_eclipse/nios2_camera_sdram_lcd_bsp/\libhal_bsp.a(alt_irq_entry.o)
 .debug_aranges
                0x000007f8       0x28 C:/work/fpga/nios2_camera_sdram_lcd/prj_eclipse/nios2_camera_sdram_lcd_bsp/\libhal_bsp.a(alt_irq_handler.o)
 .debug_aranges
                0x00000820       0x20 C:/work/fpga/nios2_camera_sdram_lcd/prj_eclipse/nios2_camera_sdram_lcd_bsp/\libhal_bsp.a(alt_isatty.o)
 .debug_aranges
                0x00000840       0x20 C:/work/fpga/nios2_camera_sdram_lcd/prj_eclipse/nios2_camera_sdram_lcd_bsp/\libhal_bsp.a(alt_load.o)
 .debug_aranges
                0x00000860       0x20 C:/work/fpga/nios2_camera_sdram_lcd/prj_eclipse/nios2_camera_sdram_lcd_bsp/\libhal_bsp.a(alt_lseek.o)
 .debug_aranges
                0x00000880       0x20 C:/work/fpga/nios2_camera_sdram_lcd/prj_eclipse/nios2_camera_sdram_lcd_bsp/\libhal_bsp.a(alt_main.o)
 .debug_aranges
                0x000008a0       0x20 C:/work/fpga/nios2_camera_sdram_lcd/prj_eclipse/nios2_camera_sdram_lcd_bsp/\libhal_bsp.a(alt_malloc_lock.o)
 .debug_aranges
                0x000008c0       0x20 C:/work/fpga/nios2_camera_sdram_lcd/prj_eclipse/nios2_camera_sdram_lcd_bsp/\libhal_bsp.a(alt_read.o)
 .debug_aranges
                0x000008e0       0x20 C:/work/fpga/nios2_camera_sdram_lcd/prj_eclipse/nios2_camera_sdram_lcd_bsp/\libhal_bsp.a(alt_release_fd.o)
 .debug_aranges
                0x00000900       0x20 C:/work/fpga/nios2_camera_sdram_lcd/prj_eclipse/nios2_camera_sdram_lcd_bsp/\libhal_bsp.a(alt_sbrk.o)
 .debug_aranges
                0x00000920       0x20 C:/work/fpga/nios2_camera_sdram_lcd/prj_eclipse/nios2_camera_sdram_lcd_bsp/\libhal_bsp.a(alt_usleep.o)
 .debug_aranges
                0x00000940       0x20 C:/work/fpga/nios2_camera_sdram_lcd/prj_eclipse/nios2_camera_sdram_lcd_bsp/\libhal_bsp.a(alt_write.o)
 .debug_aranges
                0x00000960       0x20 C:/work/fpga/nios2_camera_sdram_lcd/prj_eclipse/nios2_camera_sdram_lcd_bsp/\libhal_bsp.a(alt_sys_init.o)
 .debug_aranges
                0x00000980       0x20 C:/work/fpga/nios2_camera_sdram_lcd/prj_eclipse/nios2_camera_sdram_lcd_bsp/\libhal_bsp.a(altera_avalon_jtag_uart_fd.o)
 .debug_aranges
                0x000009a0       0x20 C:/work/fpga/nios2_camera_sdram_lcd/prj_eclipse/nios2_camera_sdram_lcd_bsp/\libhal_bsp.a(altera_avalon_jtag_uart_init.o)
 .debug_aranges
                0x000009c0       0x20 C:/work/fpga/nios2_camera_sdram_lcd/prj_eclipse/nios2_camera_sdram_lcd_bsp/\libhal_bsp.a(altera_avalon_jtag_uart_ioctl.o)
 .debug_aranges
                0x000009e0       0x20 C:/work/fpga/nios2_camera_sdram_lcd/prj_eclipse/nios2_camera_sdram_lcd_bsp/\libhal_bsp.a(altera_avalon_jtag_uart_read.o)
 .debug_aranges
                0x00000a00       0x20 C:/work/fpga/nios2_camera_sdram_lcd/prj_eclipse/nios2_camera_sdram_lcd_bsp/\libhal_bsp.a(altera_avalon_jtag_uart_write.o)
 .debug_aranges
                0x00000a20       0x20 C:/work/fpga/nios2_camera_sdram_lcd/prj_eclipse/nios2_camera_sdram_lcd_bsp/\libhal_bsp.a(alt_alarm_start.o)
 .debug_aranges
                0x00000a40       0x20 C:/work/fpga/nios2_camera_sdram_lcd/prj_eclipse/nios2_camera_sdram_lcd_bsp/\libhal_bsp.a(alt_busy_sleep.o)
 .debug_aranges
                0x00000a60       0x20 C:/work/fpga/nios2_camera_sdram_lcd/prj_eclipse/nios2_camera_sdram_lcd_bsp/\libhal_bsp.a(alt_dcache_flush_all.o)
 .debug_aranges
                0x00000a80       0x20 C:/work/fpga/nios2_camera_sdram_lcd/prj_eclipse/nios2_camera_sdram_lcd_bsp/\libhal_bsp.a(alt_dev_llist_insert.o)
 .debug_aranges
                0x00000aa0       0x20 C:/work/fpga/nios2_camera_sdram_lcd/prj_eclipse/nios2_camera_sdram_lcd_bsp/\libhal_bsp.a(alt_do_ctors.o)
 .debug_aranges
                0x00000ac0       0x20 C:/work/fpga/nios2_camera_sdram_lcd/prj_eclipse/nios2_camera_sdram_lcd_bsp/\libhal_bsp.a(alt_do_dtors.o)
 .debug_aranges
                0x00000ae0       0x38 C:/work/fpga/nios2_camera_sdram_lcd/prj_eclipse/nios2_camera_sdram_lcd_bsp/\libhal_bsp.a(alt_exception_entry.o)
 .debug_aranges
                0x00000b18       0x20 C:/work/fpga/nios2_camera_sdram_lcd/prj_eclipse/nios2_camera_sdram_lcd_bsp/\libhal_bsp.a(alt_icache_flush_all.o)
 .debug_aranges
                0x00000b38       0x20 C:/work/fpga/nios2_camera_sdram_lcd/prj_eclipse/nios2_camera_sdram_lcd_bsp/\libhal_bsp.a(alt_io_redirect.o)
 .debug_aranges
                0x00000b58       0x20 C:/work/fpga/nios2_camera_sdram_lcd/prj_eclipse/nios2_camera_sdram_lcd_bsp/\libhal_bsp.a(alt_open.o)
 .debug_aranges
                0x00000b78       0x20 C:/work/fpga/nios2_camera_sdram_lcd/prj_eclipse/nios2_camera_sdram_lcd_bsp/\libhal_bsp.a(alt_tick.o)
 .debug_aranges
                0x00000b98       0x20 C:/work/fpga/nios2_camera_sdram_lcd/prj_eclipse/nios2_camera_sdram_lcd_bsp/\libhal_bsp.a(altera_nios2_qsys_irq.o)
 .debug_aranges
                0x00000bb8       0x20 C:/work/fpga/nios2_camera_sdram_lcd/prj_eclipse/nios2_camera_sdram_lcd_bsp/\libhal_bsp.a(alt_find_dev.o)
 .debug_aranges
                0x00000bd8       0x20 C:/work/fpga/nios2_camera_sdram_lcd/prj_eclipse/nios2_camera_sdram_lcd_bsp/\libhal_bsp.a(alt_find_file.o)
 .debug_aranges
                0x00000bf8       0x20 C:/work/fpga/nios2_camera_sdram_lcd/prj_eclipse/nios2_camera_sdram_lcd_bsp/\libhal_bsp.a(alt_get_fd.o)
 .debug_aranges
                0x00000c18       0x20 c:/altera/12.1/nios2eds/bin/gnu/h-i686-mingw32/bin/../lib/gcc/nios2-elf/4.1.2/../../../../nios2-elf/lib/mno-hw-mul\libc.a(lib_a-atexit.o)
 .debug_aranges
                0x00000c38       0x20 c:/altera/12.1/nios2eds/bin/gnu/h-i686-mingw32/bin/../lib/gcc/nios2-elf/4.1.2/../../../../nios2-elf/lib/mno-hw-mul\libc.a(lib_a-exit.o)
 .debug_aranges
                0x00000c58       0x20 c:/altera/12.1/nios2eds/bin/gnu/h-i686-mingw32/bin/../lib/gcc/nios2-elf/4.1.2/../../../../nios2-elf/lib/mno-hw-mul\libc.a(lib_a-memcmp.o)
 .debug_aranges
                0x00000c78       0x20 c:/altera/12.1/nios2eds/bin/gnu/h-i686-mingw32/bin/../lib/gcc/nios2-elf/4.1.2/../../../../nios2-elf/lib/mno-hw-mul\libc.a(lib_a-__atexit.o)
 .debug_aranges
                0x00000c98       0x20 c:/altera/12.1/nios2eds/bin/gnu/h-i686-mingw32/bin/../lib/gcc/nios2-elf/4.1.2/../../../../nios2-elf/lib/mno-hw-mul\libc.a(lib_a-__call_atexit.o)
 .debug_aranges
                0x00000cb8       0x20 C:/work/fpga/nios2_camera_sdram_lcd/prj_eclipse/nios2_camera_sdram_lcd_bsp/\libhal_bsp.a(alt_exit.o)

.debug_pubnames
                0x00000000     0x13d9
 *(.debug_pubnames)
 .debug_pubnames
                0x00000000       0x39 obj/default/avalon_isp_algo_2a.o
 .debug_pubnames
                0x00000039       0x1b obj/default/hello_world.o
 .debug_pubnames
                0x00000054       0x6a obj/default/ov5640_drv.o
 .debug_pubnames
                0x000000be       0x48 c:/altera/12.1/nios2eds/bin/gnu/h-i686-mingw32/bin/../lib/gcc/nios2-elf/4.1.2/mno-hw-mul\libgcc.a(lib2-divmod.o)
 .debug_pubnames
                0x00000106       0x1f c:/altera/12.1/nios2eds/bin/gnu/h-i686-mingw32/bin/../lib/gcc/nios2-elf/4.1.2/mno-hw-mul\libgcc.a(lib2-mul.o)
 .debug_pubnames
                0x00000125       0x2b c:/altera/12.1/nios2eds/bin/gnu/h-i686-mingw32/bin/../lib/gcc/nios2-elf/4.1.2/../../../../nios2-elf/lib/mno-hw-mul\libc.a(lib_a-printf.o)
 .debug_pubnames
                0x00000150       0x27 c:/altera/12.1/nios2eds/bin/gnu/h-i686-mingw32/bin/../lib/gcc/nios2-elf/4.1.2/../../../../nios2-elf/lib/mno-hw-mul\libc.a(lib_a-puts.o)
 .debug_pubnames
                0x00000177       0x1d c:/altera/12.1/nios2eds/bin/gnu/h-i686-mingw32/bin/../lib/gcc/nios2-elf/4.1.2/../../../../nios2-elf/lib/mno-hw-mul\libc.a(lib_a-strlen.o)
 .debug_pubnames
                0x00000194       0x45 c:/altera/12.1/nios2eds/bin/gnu/h-i686-mingw32/bin/../lib/gcc/nios2-elf/4.1.2/../../../../nios2-elf/lib/mno-hw-mul\libc.a(lib_a-vfprintf.o)
 .debug_pubnames
                0x000001d9       0x22 c:/altera/12.1/nios2eds/bin/gnu/h-i686-mingw32/bin/../lib/gcc/nios2-elf/4.1.2/../../../../nios2-elf/lib/mno-hw-mul\libc.a(lib_a-wsetup.o)
 .debug_pubnames
                0x000001fb       0x1e c:/altera/12.1/nios2eds/bin/gnu/h-i686-mingw32/bin/../lib/gcc/nios2-elf/4.1.2/../../../../nios2-elf/lib/mno-hw-mul\libc.a(lib_a-dtoa.o)
 .debug_pubnames
                0x00000219       0x2b c:/altera/12.1/nios2eds/bin/gnu/h-i686-mingw32/bin/../lib/gcc/nios2-elf/4.1.2/../../../../nios2-elf/lib/mno-hw-mul\libc.a(lib_a-fflush.o)
 .debug_pubnames
                0x00000244       0xdb c:/altera/12.1/nios2eds/bin/gnu/h-i686-mingw32/bin/../lib/gcc/nios2-elf/4.1.2/../../../../nios2-elf/lib/mno-hw-mul\libc.a(lib_a-findfp.o)
 .debug_pubnames
                0x0000031f       0x31 c:/altera/12.1/nios2eds/bin/gnu/h-i686-mingw32/bin/../lib/gcc/nios2-elf/4.1.2/../../../../nios2-elf/lib/mno-hw-mul\libc.a(lib_a-freer.o)
 .debug_pubnames
                0x00000350       0x23 c:/altera/12.1/nios2eds/bin/gnu/h-i686-mingw32/bin/../lib/gcc/nios2-elf/4.1.2/../../../../nios2-elf/lib/mno-hw-mul\libc.a(lib_a-fvwrite.o)
 .debug_pubnames
                0x00000373       0x2e c:/altera/12.1/nios2eds/bin/gnu/h-i686-mingw32/bin/../lib/gcc/nios2-elf/4.1.2/../../../../nios2-elf/lib/mno-hw-mul\libc.a(lib_a-fwalk.o)
 .debug_pubnames
                0x000003a1       0x39 c:/altera/12.1/nios2eds/bin/gnu/h-i686-mingw32/bin/../lib/gcc/nios2-elf/4.1.2/../../../../nios2-elf/lib/mno-hw-mul\libc.a(lib_a-impure.o)
 .debug_pubnames
                0x000003da       0xc3 c:/altera/12.1/nios2eds/bin/gnu/h-i686-mingw32/bin/../lib/gcc/nios2-elf/4.1.2/../../../../nios2-elf/lib/mno-hw-mul\libc.a(lib_a-locale.o)
 .debug_pubnames
                0x0000049d       0x23 c:/altera/12.1/nios2eds/bin/gnu/h-i686-mingw32/bin/../lib/gcc/nios2-elf/4.1.2/../../../../nios2-elf/lib/mno-hw-mul\libc.a(lib_a-makebuf.o)
 .debug_pubnames
                0x000004c0       0xce c:/altera/12.1/nios2eds/bin/gnu/h-i686-mingw32/bin/../lib/gcc/nios2-elf/4.1.2/../../../../nios2-elf/lib/mno-hw-mul\libc.a(lib_a-mallocr.o)
 .debug_pubnames
                0x0000058e       0x1d c:/altera/12.1/nios2eds/bin/gnu/h-i686-mingw32/bin/../lib/gcc/nios2-elf/4.1.2/../../../../nios2-elf/lib/mno-hw-mul\libc.a(lib_a-memchr.o)
 .debug_pubnames
                0x000005ab       0x1d c:/altera/12.1/nios2eds/bin/gnu/h-i686-mingw32/bin/../lib/gcc/nios2-elf/4.1.2/../../../../nios2-elf/lib/mno-hw-mul\libc.a(lib_a-memcpy.o)
 .debug_pubnames
                0x000005c8       0x1e c:/altera/12.1/nios2eds/bin/gnu/h-i686-mingw32/bin/../lib/gcc/nios2-elf/4.1.2/../../../../nios2-elf/lib/mno-hw-mul\libc.a(lib_a-memmove.o)
 .debug_pubnames
                0x000005e6       0x1d c:/altera/12.1/nios2eds/bin/gnu/h-i686-mingw32/bin/../lib/gcc/nios2-elf/4.1.2/../../../../nios2-elf/lib/mno-hw-mul\libc.a(lib_a-memset.o)
 .debug_pubnames
                0x00000603      0x13a c:/altera/12.1/nios2eds/bin/gnu/h-i686-mingw32/bin/../lib/gcc/nios2-elf/4.1.2/../../../../nios2-elf/lib/mno-hw-mul\libc.a(lib_a-mprec.o)
 .debug_pubnames
                0x0000073d       0x21 c:/altera/12.1/nios2eds/bin/gnu/h-i686-mingw32/bin/../lib/gcc/nios2-elf/4.1.2/../../../../nios2-elf/lib/mno-hw-mul\libc.a(lib_a-reallocr.o)
 .debug_pubnames
                0x0000075e       0x1f c:/altera/12.1/nios2eds/bin/gnu/h-i686-mingw32/bin/../lib/gcc/nios2-elf/4.1.2/../../../../nios2-elf/lib/mno-hw-mul\libc.a(lib_a-s_isinfd.o)
 .debug_pubnames
                0x0000077d       0x1f c:/altera/12.1/nios2eds/bin/gnu/h-i686-mingw32/bin/../lib/gcc/nios2-elf/4.1.2/../../../../nios2-elf/lib/mno-hw-mul\libc.a(lib_a-s_isnand.o)
 .debug_pubnames
                0x0000079c       0x1e c:/altera/12.1/nios2eds/bin/gnu/h-i686-mingw32/bin/../lib/gcc/nios2-elf/4.1.2/../../../../nios2-elf/lib/mno-hw-mul\libc.a(lib_a-sbrkr.o)
 .debug_pubnames
                0x000007ba       0x44 c:/altera/12.1/nios2eds/bin/gnu/h-i686-mingw32/bin/../lib/gcc/nios2-elf/4.1.2/../../../../nios2-elf/lib/mno-hw-mul\libc.a(lib_a-stdio.o)
 .debug_pubnames
                0x000007fe       0x1d c:/altera/12.1/nios2eds/bin/gnu/h-i686-mingw32/bin/../lib/gcc/nios2-elf/4.1.2/../../../../nios2-elf/lib/mno-hw-mul\libc.a(lib_a-strcmp.o)
 .debug_pubnames
                0x0000081b       0x1f c:/altera/12.1/nios2eds/bin/gnu/h-i686-mingw32/bin/../lib/gcc/nios2-elf/4.1.2/../../../../nios2-elf/lib/mno-hw-mul\libc.a(lib_a-writer.o)
 .debug_pubnames
                0x0000083a       0x20 c:/altera/12.1/nios2eds/bin/gnu/h-i686-mingw32/bin/../lib/gcc/nios2-elf/4.1.2/../../../../nios2-elf/lib/mno-hw-mul\libc.a(lib_a-callocr.o)
 .debug_pubnames
                0x0000085a       0x1f c:/altera/12.1/nios2eds/bin/gnu/h-i686-mingw32/bin/../lib/gcc/nios2-elf/4.1.2/../../../../nios2-elf/lib/mno-hw-mul\libc.a(lib_a-closer.o)
 .debug_pubnames
                0x00000879       0x2b c:/altera/12.1/nios2eds/bin/gnu/h-i686-mingw32/bin/../lib/gcc/nios2-elf/4.1.2/../../../../nios2-elf/lib/mno-hw-mul\libc.a(lib_a-fclose.o)
 .debug_pubnames
                0x000008a4       0x1f c:/altera/12.1/nios2eds/bin/gnu/h-i686-mingw32/bin/../lib/gcc/nios2-elf/4.1.2/../../../../nios2-elf/lib/mno-hw-mul\libc.a(lib_a-fstatr.o)
 .debug_pubnames
                0x000008c3       0x1c c:/altera/12.1/nios2eds/bin/gnu/h-i686-mingw32/bin/../lib/gcc/nios2-elf/4.1.2/../../../../nios2-elf/lib/mno-hw-mul\libc.a(lib_a-int_errno.o)
 .debug_pubnames
                0x000008df       0x20 c:/altera/12.1/nios2eds/bin/gnu/h-i686-mingw32/bin/../lib/gcc/nios2-elf/4.1.2/../../../../nios2-elf/lib/mno-hw-mul\libc.a(lib_a-isattyr.o)
 .debug_pubnames
                0x000008ff       0x1f c:/altera/12.1/nios2eds/bin/gnu/h-i686-mingw32/bin/../lib/gcc/nios2-elf/4.1.2/../../../../nios2-elf/lib/mno-hw-mul\libc.a(lib_a-lseekr.o)
 .debug_pubnames
                0x0000091e       0x1e c:/altera/12.1/nios2eds/bin/gnu/h-i686-mingw32/bin/../lib/gcc/nios2-elf/4.1.2/../../../../nios2-elf/lib/mno-hw-mul\libc.a(lib_a-readr.o)
 .debug_pubnames
                0x0000093c       0x20 c:/altera/12.1/nios2eds/bin/gnu/h-i686-mingw32/bin/../lib/gcc/nios2-elf/4.1.2/mno-hw-mul\libgcc.a(_udivdi3.o)
 .debug_pubnames
                0x0000095c       0x20 c:/altera/12.1/nios2eds/bin/gnu/h-i686-mingw32/bin/../lib/gcc/nios2-elf/4.1.2/mno-hw-mul\libgcc.a(_umoddi3.o)
 .debug_pubnames
                0x0000097c       0x2c c:/altera/12.1/nios2eds/bin/gnu/h-i686-mingw32/bin/../lib/gcc/nios2-elf/4.1.2/mno-hw-mul\libgcc.a(_addsub_df.o)
 .debug_pubnames
                0x000009a8       0x1f c:/altera/12.1/nios2eds/bin/gnu/h-i686-mingw32/bin/../lib/gcc/nios2-elf/4.1.2/mno-hw-mul\libgcc.a(_mul_df.o)
 .debug_pubnames
                0x000009c7       0x1f c:/altera/12.1/nios2eds/bin/gnu/h-i686-mingw32/bin/../lib/gcc/nios2-elf/4.1.2/mno-hw-mul\libgcc.a(_div_df.o)
 .debug_pubnames
                0x000009e6       0x1e c:/altera/12.1/nios2eds/bin/gnu/h-i686-mingw32/bin/../lib/gcc/nios2-elf/4.1.2/mno-hw-mul\libgcc.a(_eq_df.o)
 .debug_pubnames
                0x00000a04       0x1e c:/altera/12.1/nios2eds/bin/gnu/h-i686-mingw32/bin/../lib/gcc/nios2-elf/4.1.2/mno-hw-mul\libgcc.a(_ne_df.o)
 .debug_pubnames
                0x00000a22       0x1e c:/altera/12.1/nios2eds/bin/gnu/h-i686-mingw32/bin/../lib/gcc/nios2-elf/4.1.2/mno-hw-mul\libgcc.a(_gt_df.o)
 .debug_pubnames
                0x00000a40       0x1e c:/altera/12.1/nios2eds/bin/gnu/h-i686-mingw32/bin/../lib/gcc/nios2-elf/4.1.2/mno-hw-mul\libgcc.a(_ge_df.o)
 .debug_pubnames
                0x00000a5e       0x1e c:/altera/12.1/nios2eds/bin/gnu/h-i686-mingw32/bin/../lib/gcc/nios2-elf/4.1.2/mno-hw-mul\libgcc.a(_lt_df.o)
 .debug_pubnames
                0x00000a7c       0x22 c:/altera/12.1/nios2eds/bin/gnu/h-i686-mingw32/bin/../lib/gcc/nios2-elf/4.1.2/mno-hw-mul\libgcc.a(_si_to_df.o)
 .debug_pubnames
                0x00000a9e       0x20 c:/altera/12.1/nios2eds/bin/gnu/h-i686-mingw32/bin/../lib/gcc/nios2-elf/4.1.2/mno-hw-mul\libgcc.a(_df_to_si.o)
 .debug_pubnames
                0x00000abe       0x22 c:/altera/12.1/nios2eds/bin/gnu/h-i686-mingw32/bin/../lib/gcc/nios2-elf/4.1.2/mno-hw-mul\libgcc.a(_thenan_df.o)
 .debug_pubnames
                0x00000ae0       0x24 c:/altera/12.1/nios2eds/bin/gnu/h-i686-mingw32/bin/../lib/gcc/nios2-elf/4.1.2/mno-hw-mul\libgcc.a(_usi_to_df.o)
 .debug_pubnames
                0x00000b04       0x1f c:/altera/12.1/nios2eds/bin/gnu/h-i686-mingw32/bin/../lib/gcc/nios2-elf/4.1.2/mno-hw-mul\libgcc.a(_muldi3.o)
 .debug_pubnames
                0x00000b23       0x20 c:/altera/12.1/nios2eds/bin/gnu/h-i686-mingw32/bin/../lib/gcc/nios2-elf/4.1.2/mno-hw-mul\libgcc.a(_clz.o)
 .debug_pubnames
                0x00000b43       0x1f c:/altera/12.1/nios2eds/bin/gnu/h-i686-mingw32/bin/../lib/gcc/nios2-elf/4.1.2/mno-hw-mul\libgcc.a(_clzsi2.o)
 .debug_pubnames
                0x00000b62       0x1f c:/altera/12.1/nios2eds/bin/gnu/h-i686-mingw32/bin/../lib/gcc/nios2-elf/4.1.2/mno-hw-mul\libgcc.a(_pack_df.o)
 .debug_pubnames
                0x00000b81       0x21 c:/altera/12.1/nios2eds/bin/gnu/h-i686-mingw32/bin/../lib/gcc/nios2-elf/4.1.2/mno-hw-mul\libgcc.a(_unpack_df.o)
 .debug_pubnames
                0x00000ba2       0x26 c:/altera/12.1/nios2eds/bin/gnu/h-i686-mingw32/bin/../lib/gcc/nios2-elf/4.1.2/mno-hw-mul\libgcc.a(_fpcmp_parts_df.o)
 .debug_pubnames
                0x00000bc8       0x1c C:/work/fpga/nios2_camera_sdram_lcd/prj_eclipse/nios2_camera_sdram_lcd_bsp/\libhal_bsp.a(alt_close.o)
 .debug_pubnames
                0x00000be4       0x63 C:/work/fpga/nios2_camera_sdram_lcd/prj_eclipse/nios2_camera_sdram_lcd_bsp/\libhal_bsp.a(alt_dev.o)
 .debug_pubnames
                0x00000c47       0x20 C:/work/fpga/nios2_camera_sdram_lcd/prj_eclipse/nios2_camera_sdram_lcd_bsp/\libhal_bsp.a(alt_errno.o)
 .debug_pubnames
                0x00000c67       0x1c C:/work/fpga/nios2_camera_sdram_lcd/prj_eclipse/nios2_camera_sdram_lcd_bsp/\libhal_bsp.a(alt_fstat.o)
 .debug_pubnames
                0x00000c83       0x6e C:/work/fpga/nios2_camera_sdram_lcd/prj_eclipse/nios2_camera_sdram_lcd_bsp/\libhal_bsp.a(alt_iic.o)
 .debug_pubnames
                0x00000cf1       0x2b C:/work/fpga/nios2_camera_sdram_lcd/prj_eclipse/nios2_camera_sdram_lcd_bsp/\libhal_bsp.a(alt_iic_isr_register.o)
 .debug_pubnames
                0x00000d1c       0x32 C:/work/fpga/nios2_camera_sdram_lcd/prj_eclipse/nios2_camera_sdram_lcd_bsp/\libhal_bsp.a(alt_irq_handler.o)
 .debug_pubnames
                0x00000d4e       0x3b C:/work/fpga/nios2_camera_sdram_lcd/prj_eclipse/nios2_camera_sdram_lcd_bsp/\libhal_bsp.a(alt_irq_vars.o)
 .debug_pubnames
                0x00000d89       0x1d C:/work/fpga/nios2_camera_sdram_lcd/prj_eclipse/nios2_camera_sdram_lcd_bsp/\libhal_bsp.a(alt_isatty.o)
 .debug_pubnames
                0x00000da6       0x1f C:/work/fpga/nios2_camera_sdram_lcd/prj_eclipse/nios2_camera_sdram_lcd_bsp/\libhal_bsp.a(alt_load.o)
 .debug_pubnames
                0x00000dc5       0x1c C:/work/fpga/nios2_camera_sdram_lcd/prj_eclipse/nios2_camera_sdram_lcd_bsp/\libhal_bsp.a(alt_lseek.o)
 .debug_pubnames
                0x00000de1       0x46 C:/work/fpga/nios2_camera_sdram_lcd/prj_eclipse/nios2_camera_sdram_lcd_bsp/\libhal_bsp.a(alt_main.o)
 .debug_pubnames
                0x00000e27       0x38 C:/work/fpga/nios2_camera_sdram_lcd/prj_eclipse/nios2_camera_sdram_lcd_bsp/\libhal_bsp.a(alt_malloc_lock.o)
 .debug_pubnames
                0x00000e5f       0x1b C:/work/fpga/nios2_camera_sdram_lcd/prj_eclipse/nios2_camera_sdram_lcd_bsp/\libhal_bsp.a(alt_read.o)
 .debug_pubnames
                0x00000e7a       0x25 C:/work/fpga/nios2_camera_sdram_lcd/prj_eclipse/nios2_camera_sdram_lcd_bsp/\libhal_bsp.a(alt_release_fd.o)
 .debug_pubnames
                0x00000e9f       0x1b C:/work/fpga/nios2_camera_sdram_lcd/prj_eclipse/nios2_camera_sdram_lcd_bsp/\libhal_bsp.a(alt_sbrk.o)
 .debug_pubnames
                0x00000eba       0x1d C:/work/fpga/nios2_camera_sdram_lcd/prj_eclipse/nios2_camera_sdram_lcd_bsp/\libhal_bsp.a(alt_usleep.o)
 .debug_pubnames
                0x00000ed7       0x1c C:/work/fpga/nios2_camera_sdram_lcd/prj_eclipse/nios2_camera_sdram_lcd_bsp/\libhal_bsp.a(alt_write.o)
 .debug_pubnames
                0x00000ef3       0x34 C:/work/fpga/nios2_camera_sdram_lcd/prj_eclipse/nios2_camera_sdram_lcd_bsp/\libhal_bsp.a(alt_sys_init.o)
 .debug_pubnames
                0x00000f27       0xa5 C:/work/fpga/nios2_camera_sdram_lcd/prj_eclipse/nios2_camera_sdram_lcd_bsp/\libhal_bsp.a(altera_avalon_jtag_uart_fd.o)
 .debug_pubnames
                0x00000fcc       0x55 C:/work/fpga/nios2_camera_sdram_lcd/prj_eclipse/nios2_camera_sdram_lcd_bsp/\libhal_bsp.a(altera_avalon_jtag_uart_init.o)
 .debug_pubnames
                0x00001021       0x34 C:/work/fpga/nios2_camera_sdram_lcd/prj_eclipse/nios2_camera_sdram_lcd_bsp/\libhal_bsp.a(altera_avalon_jtag_uart_ioctl.o)
 .debug_pubnames
                0x00001055       0x33 C:/work/fpga/nios2_camera_sdram_lcd/prj_eclipse/nios2_camera_sdram_lcd_bsp/\libhal_bsp.a(altera_avalon_jtag_uart_read.o)
 .debug_pubnames
                0x00001088       0x34 C:/work/fpga/nios2_camera_sdram_lcd/prj_eclipse/nios2_camera_sdram_lcd_bsp/\libhal_bsp.a(altera_avalon_jtag_uart_write.o)
 .debug_pubnames
                0x000010bc       0x26 C:/work/fpga/nios2_camera_sdram_lcd/prj_eclipse/nios2_camera_sdram_lcd_bsp/\libhal_bsp.a(alt_alarm_start.o)
 .debug_pubnames
                0x000010e2       0x25 C:/work/fpga/nios2_camera_sdram_lcd/prj_eclipse/nios2_camera_sdram_lcd_bsp/\libhal_bsp.a(alt_busy_sleep.o)
 .debug_pubnames
                0x00001107       0x2b C:/work/fpga/nios2_camera_sdram_lcd/prj_eclipse/nios2_camera_sdram_lcd_bsp/\libhal_bsp.a(alt_dcache_flush_all.o)
 .debug_pubnames
                0x00001132       0x2b C:/work/fpga/nios2_camera_sdram_lcd/prj_eclipse/nios2_camera_sdram_lcd_bsp/\libhal_bsp.a(alt_dev_llist_insert.o)
 .debug_pubnames
                0x0000115d       0x20 C:/work/fpga/nios2_camera_sdram_lcd/prj_eclipse/nios2_camera_sdram_lcd_bsp/\libhal_bsp.a(alt_do_ctors.o)
 .debug_pubnames
                0x0000117d       0x20 C:/work/fpga/nios2_camera_sdram_lcd/prj_eclipse/nios2_camera_sdram_lcd_bsp/\libhal_bsp.a(alt_do_dtors.o)
 .debug_pubnames
                0x0000119d       0x2b C:/work/fpga/nios2_camera_sdram_lcd/prj_eclipse/nios2_camera_sdram_lcd_bsp/\libhal_bsp.a(alt_icache_flush_all.o)
 .debug_pubnames
                0x000011c8       0x26 C:/work/fpga/nios2_camera_sdram_lcd/prj_eclipse/nios2_camera_sdram_lcd_bsp/\libhal_bsp.a(alt_io_redirect.o)
 .debug_pubnames
                0x000011ee       0x1b C:/work/fpga/nios2_camera_sdram_lcd/prj_eclipse/nios2_camera_sdram_lcd_bsp/\libhal_bsp.a(alt_open.o)
 .debug_pubnames
                0x00001209       0x68 C:/work/fpga/nios2_camera_sdram_lcd/prj_eclipse/nios2_camera_sdram_lcd_bsp/\libhal_bsp.a(alt_tick.o)
 .debug_pubnames
                0x00001271       0x31 C:/work/fpga/nios2_camera_sdram_lcd/prj_eclipse/nios2_camera_sdram_lcd_bsp/\libhal_bsp.a(altera_nios2_qsys_irq.o)
 .debug_pubnames
                0x000012a2       0x23 C:/work/fpga/nios2_camera_sdram_lcd/prj_eclipse/nios2_camera_sdram_lcd_bsp/\libhal_bsp.a(alt_find_dev.o)
 .debug_pubnames
                0x000012c5       0x24 C:/work/fpga/nios2_camera_sdram_lcd/prj_eclipse/nios2_camera_sdram_lcd_bsp/\libhal_bsp.a(alt_find_file.o)
 .debug_pubnames
                0x000012e9       0x21 C:/work/fpga/nios2_camera_sdram_lcd/prj_eclipse/nios2_camera_sdram_lcd_bsp/\libhal_bsp.a(alt_get_fd.o)
 .debug_pubnames
                0x0000130a       0x2a c:/altera/12.1/nios2eds/bin/gnu/h-i686-mingw32/bin/../lib/gcc/nios2-elf/4.1.2/../../../../nios2-elf/lib/mno-hw-mul\libc.a(lib_a-atexit.o)
 .debug_pubnames
                0x00001334       0x1b c:/altera/12.1/nios2eds/bin/gnu/h-i686-mingw32/bin/../lib/gcc/nios2-elf/4.1.2/../../../../nios2-elf/lib/mno-hw-mul\libc.a(lib_a-exit.o)
 .debug_pubnames
                0x0000134f       0x1d c:/altera/12.1/nios2eds/bin/gnu/h-i686-mingw32/bin/../lib/gcc/nios2-elf/4.1.2/../../../../nios2-elf/lib/mno-hw-mul\libc.a(lib_a-memcmp.o)
 .debug_pubnames
                0x0000136c       0x2a c:/altera/12.1/nios2eds/bin/gnu/h-i686-mingw32/bin/../lib/gcc/nios2-elf/4.1.2/../../../../nios2-elf/lib/mno-hw-mul\libc.a(lib_a-__atexit.o)
 .debug_pubnames
                0x00001396       0x27 c:/altera/12.1/nios2eds/bin/gnu/h-i686-mingw32/bin/../lib/gcc/nios2-elf/4.1.2/../../../../nios2-elf/lib/mno-hw-mul\libc.a(lib_a-__call_atexit.o)
 .debug_pubnames
                0x000013bd       0x1c C:/work/fpga/nios2_camera_sdram_lcd/prj_eclipse/nios2_camera_sdram_lcd_bsp/\libhal_bsp.a(alt_exit.o)

.debug_info     0x00000000    0x23236
 *(.debug_info .gnu.linkonce.wi.*)
 .debug_info    0x00000000       0x7c C:/work/fpga/nios2_camera_sdram_lcd/prj_eclipse/nios2_camera_sdram_lcd_bsp//obj/HAL/src/crt0.o
 .debug_info    0x0000007c      0x29a obj/default/avalon_isp_algo_2a.o
 .debug_info    0x00000316      0x30c obj/default/hello_world.o
 .debug_info    0x00000622      0x37a obj/default/ov5640_drv.o
 .debug_info    0x0000099c      0x21c c:/altera/12.1/nios2eds/bin/gnu/h-i686-mingw32/bin/../lib/gcc/nios2-elf/4.1.2/mno-hw-mul\libgcc.a(lib2-divmod.o)
 .debug_info    0x00000bb8       0xf3 c:/altera/12.1/nios2eds/bin/gnu/h-i686-mingw32/bin/../lib/gcc/nios2-elf/4.1.2/mno-hw-mul\libgcc.a(lib2-mul.o)
 .debug_info    0x00000cab      0x9d1 c:/altera/12.1/nios2eds/bin/gnu/h-i686-mingw32/bin/../lib/gcc/nios2-elf/4.1.2/../../../../nios2-elf/lib/mno-hw-mul\libc.a(lib_a-printf.o)
 .debug_info    0x0000167c      0xa25 c:/altera/12.1/nios2eds/bin/gnu/h-i686-mingw32/bin/../lib/gcc/nios2-elf/4.1.2/../../../../nios2-elf/lib/mno-hw-mul\libc.a(lib_a-puts.o)
 .debug_info    0x000020a1       0xdb c:/altera/12.1/nios2eds/bin/gnu/h-i686-mingw32/bin/../lib/gcc/nios2-elf/4.1.2/../../../../nios2-elf/lib/mno-hw-mul\libc.a(lib_a-strlen.o)
 .debug_info    0x0000217c     0x10d5 c:/altera/12.1/nios2eds/bin/gnu/h-i686-mingw32/bin/../lib/gcc/nios2-elf/4.1.2/../../../../nios2-elf/lib/mno-hw-mul\libc.a(lib_a-vfprintf.o)
 .debug_info    0x00003251      0x95d c:/altera/12.1/nios2eds/bin/gnu/h-i686-mingw32/bin/../lib/gcc/nios2-elf/4.1.2/../../../../nios2-elf/lib/mno-hw-mul\libc.a(lib_a-wsetup.o)
 .debug_info    0x00003bae      0xd6f c:/altera/12.1/nios2eds/bin/gnu/h-i686-mingw32/bin/../lib/gcc/nios2-elf/4.1.2/../../../../nios2-elf/lib/mno-hw-mul\libc.a(lib_a-dtoa.o)
 .debug_info    0x0000491d      0x9fe c:/altera/12.1/nios2eds/bin/gnu/h-i686-mingw32/bin/../lib/gcc/nios2-elf/4.1.2/../../../../nios2-elf/lib/mno-hw-mul\libc.a(lib_a-fflush.o)
 .debug_info    0x0000531b      0xb72 c:/altera/12.1/nios2eds/bin/gnu/h-i686-mingw32/bin/../lib/gcc/nios2-elf/4.1.2/../../../../nios2-elf/lib/mno-hw-mul\libc.a(lib_a-findfp.o)
 .debug_info    0x00005e8d      0xbc9 c:/altera/12.1/nios2eds/bin/gnu/h-i686-mingw32/bin/../lib/gcc/nios2-elf/4.1.2/../../../../nios2-elf/lib/mno-hw-mul\libc.a(lib_a-freer.o)
 .debug_info    0x00006a56      0xa88 c:/altera/12.1/nios2eds/bin/gnu/h-i686-mingw32/bin/../lib/gcc/nios2-elf/4.1.2/../../../../nios2-elf/lib/mno-hw-mul\libc.a(lib_a-fvwrite.o)
 .debug_info    0x000074de      0xaed c:/altera/12.1/nios2eds/bin/gnu/h-i686-mingw32/bin/../lib/gcc/nios2-elf/4.1.2/../../../../nios2-elf/lib/mno-hw-mul\libc.a(lib_a-fwalk.o)
 .debug_info    0x00007fcb      0x93d c:/altera/12.1/nios2eds/bin/gnu/h-i686-mingw32/bin/../lib/gcc/nios2-elf/4.1.2/../../../../nios2-elf/lib/mno-hw-mul\libc.a(lib_a-impure.o)
 .debug_info    0x00008908      0xb97 c:/altera/12.1/nios2eds/bin/gnu/h-i686-mingw32/bin/../lib/gcc/nios2-elf/4.1.2/../../../../nios2-elf/lib/mno-hw-mul\libc.a(lib_a-locale.o)
 .debug_info    0x0000949f      0xb1a c:/altera/12.1/nios2eds/bin/gnu/h-i686-mingw32/bin/../lib/gcc/nios2-elf/4.1.2/../../../../nios2-elf/lib/mno-hw-mul\libc.a(lib_a-makebuf.o)
 .debug_info    0x00009fb9      0xcd0 c:/altera/12.1/nios2eds/bin/gnu/h-i686-mingw32/bin/../lib/gcc/nios2-elf/4.1.2/../../../../nios2-elf/lib/mno-hw-mul\libc.a(lib_a-mallocr.o)
 .debug_info    0x0000ac89      0x138 c:/altera/12.1/nios2eds/bin/gnu/h-i686-mingw32/bin/../lib/gcc/nios2-elf/4.1.2/../../../../nios2-elf/lib/mno-hw-mul\libc.a(lib_a-memchr.o)
 .debug_info    0x0000adc1      0x106 c:/altera/12.1/nios2eds/bin/gnu/h-i686-mingw32/bin/../lib/gcc/nios2-elf/4.1.2/../../../../nios2-elf/lib/mno-hw-mul\libc.a(lib_a-memcpy.o)
 .debug_info    0x0000aec7      0x13e c:/altera/12.1/nios2eds/bin/gnu/h-i686-mingw32/bin/../lib/gcc/nios2-elf/4.1.2/../../../../nios2-elf/lib/mno-hw-mul\libc.a(lib_a-memmove.o)
 .debug_info    0x0000b005      0x113 c:/altera/12.1/nios2eds/bin/gnu/h-i686-mingw32/bin/../lib/gcc/nios2-elf/4.1.2/../../../../nios2-elf/lib/mno-hw-mul\libc.a(lib_a-memset.o)
 .debug_info    0x0000b118     0x143b c:/altera/12.1/nios2eds/bin/gnu/h-i686-mingw32/bin/../lib/gcc/nios2-elf/4.1.2/../../../../nios2-elf/lib/mno-hw-mul\libc.a(lib_a-mprec.o)
 .debug_info    0x0000c553      0xbd7 c:/altera/12.1/nios2eds/bin/gnu/h-i686-mingw32/bin/../lib/gcc/nios2-elf/4.1.2/../../../../nios2-elf/lib/mno-hw-mul\libc.a(lib_a-reallocr.o)
 .debug_info    0x0000d12a       0xd7 c:/altera/12.1/nios2eds/bin/gnu/h-i686-mingw32/bin/../lib/gcc/nios2-elf/4.1.2/../../../../nios2-elf/lib/mno-hw-mul\libc.a(lib_a-s_isinfd.o)
 .debug_info    0x0000d201       0xd5 c:/altera/12.1/nios2eds/bin/gnu/h-i686-mingw32/bin/../lib/gcc/nios2-elf/4.1.2/../../../../nios2-elf/lib/mno-hw-mul\libc.a(lib_a-s_isnand.o)
 .debug_info    0x0000d2d6      0x962 c:/altera/12.1/nios2eds/bin/gnu/h-i686-mingw32/bin/../lib/gcc/nios2-elf/4.1.2/../../../../nios2-elf/lib/mno-hw-mul\libc.a(lib_a-sbrkr.o)
 .debug_info    0x0000dc38      0xaac c:/altera/12.1/nios2eds/bin/gnu/h-i686-mingw32/bin/../lib/gcc/nios2-elf/4.1.2/../../../../nios2-elf/lib/mno-hw-mul\libc.a(lib_a-stdio.o)
 .debug_info    0x0000e6e4       0xdd c:/altera/12.1/nios2eds/bin/gnu/h-i686-mingw32/bin/../lib/gcc/nios2-elf/4.1.2/../../../../nios2-elf/lib/mno-hw-mul\libc.a(lib_a-strcmp.o)
 .debug_info    0x0000e7c1      0x993 c:/altera/12.1/nios2eds/bin/gnu/h-i686-mingw32/bin/../lib/gcc/nios2-elf/4.1.2/../../../../nios2-elf/lib/mno-hw-mul\libc.a(lib_a-writer.o)
 .debug_info    0x0000f154      0xa1b c:/altera/12.1/nios2eds/bin/gnu/h-i686-mingw32/bin/../lib/gcc/nios2-elf/4.1.2/../../../../nios2-elf/lib/mno-hw-mul\libc.a(lib_a-callocr.o)
 .debug_info    0x0000fb6f      0x958 c:/altera/12.1/nios2eds/bin/gnu/h-i686-mingw32/bin/../lib/gcc/nios2-elf/4.1.2/../../../../nios2-elf/lib/mno-hw-mul\libc.a(lib_a-closer.o)
 .debug_info    0x000104c7      0x994 c:/altera/12.1/nios2eds/bin/gnu/h-i686-mingw32/bin/../lib/gcc/nios2-elf/4.1.2/../../../../nios2-elf/lib/mno-hw-mul\libc.a(lib_a-fclose.o)
 .debug_info    0x00010e5b      0xafc c:/altera/12.1/nios2eds/bin/gnu/h-i686-mingw32/bin/../lib/gcc/nios2-elf/4.1.2/../../../../nios2-elf/lib/mno-hw-mul\libc.a(lib_a-fstatr.o)
 .debug_info    0x00011957       0x8c c:/altera/12.1/nios2eds/bin/gnu/h-i686-mingw32/bin/../lib/gcc/nios2-elf/4.1.2/../../../../nios2-elf/lib/mno-hw-mul\libc.a(lib_a-int_errno.o)
 .debug_info    0x000119e3      0x958 c:/altera/12.1/nios2eds/bin/gnu/h-i686-mingw32/bin/../lib/gcc/nios2-elf/4.1.2/../../../../nios2-elf/lib/mno-hw-mul\libc.a(lib_a-isattyr.o)
 .debug_info    0x0001233b      0x981 c:/altera/12.1/nios2eds/bin/gnu/h-i686-mingw32/bin/../lib/gcc/nios2-elf/4.1.2/../../../../nios2-elf/lib/mno-hw-mul\libc.a(lib_a-lseekr.o)
 .debug_info    0x00012cbc      0x98c c:/altera/12.1/nios2eds/bin/gnu/h-i686-mingw32/bin/../lib/gcc/nios2-elf/4.1.2/../../../../nios2-elf/lib/mno-hw-mul\libc.a(lib_a-readr.o)
 .debug_info    0x00013648      0x71c c:/altera/12.1/nios2eds/bin/gnu/h-i686-mingw32/bin/../lib/gcc/nios2-elf/4.1.2/mno-hw-mul\libgcc.a(_udivdi3.o)
 .debug_info    0x00013d64      0x749 c:/altera/12.1/nios2eds/bin/gnu/h-i686-mingw32/bin/../lib/gcc/nios2-elf/4.1.2/mno-hw-mul\libgcc.a(_umoddi3.o)
 .debug_info    0x000144ad      0x493 c:/altera/12.1/nios2eds/bin/gnu/h-i686-mingw32/bin/../lib/gcc/nios2-elf/4.1.2/mno-hw-mul\libgcc.a(_addsub_df.o)
 .debug_info    0x00014940      0x488 c:/altera/12.1/nios2eds/bin/gnu/h-i686-mingw32/bin/../lib/gcc/nios2-elf/4.1.2/mno-hw-mul\libgcc.a(_mul_df.o)
 .debug_info    0x00014dc8      0x39b c:/altera/12.1/nios2eds/bin/gnu/h-i686-mingw32/bin/../lib/gcc/nios2-elf/4.1.2/mno-hw-mul\libgcc.a(_div_df.o)
 .debug_info    0x00015163      0x29d c:/altera/12.1/nios2eds/bin/gnu/h-i686-mingw32/bin/../lib/gcc/nios2-elf/4.1.2/mno-hw-mul\libgcc.a(_eq_df.o)
 .debug_info    0x00015400      0x29d c:/altera/12.1/nios2eds/bin/gnu/h-i686-mingw32/bin/../lib/gcc/nios2-elf/4.1.2/mno-hw-mul\libgcc.a(_ne_df.o)
 .debug_info    0x0001569d      0x29d c:/altera/12.1/nios2eds/bin/gnu/h-i686-mingw32/bin/../lib/gcc/nios2-elf/4.1.2/mno-hw-mul\libgcc.a(_gt_df.o)
 .debug_info    0x0001593a      0x29d c:/altera/12.1/nios2eds/bin/gnu/h-i686-mingw32/bin/../lib/gcc/nios2-elf/4.1.2/mno-hw-mul\libgcc.a(_ge_df.o)
 .debug_info    0x00015bd7      0x29d c:/altera/12.1/nios2eds/bin/gnu/h-i686-mingw32/bin/../lib/gcc/nios2-elf/4.1.2/mno-hw-mul\libgcc.a(_lt_df.o)
 .debug_info    0x00015e74      0x218 c:/altera/12.1/nios2eds/bin/gnu/h-i686-mingw32/bin/../lib/gcc/nios2-elf/4.1.2/mno-hw-mul\libgcc.a(_si_to_df.o)
 .debug_info    0x0001608c      0x2cd c:/altera/12.1/nios2eds/bin/gnu/h-i686-mingw32/bin/../lib/gcc/nios2-elf/4.1.2/mno-hw-mul\libgcc.a(_df_to_si.o)
 .debug_info    0x00016359      0x164 c:/altera/12.1/nios2eds/bin/gnu/h-i686-mingw32/bin/../lib/gcc/nios2-elf/4.1.2/mno-hw-mul\libgcc.a(_thenan_df.o)
 .debug_info    0x000164bd      0x213 c:/altera/12.1/nios2eds/bin/gnu/h-i686-mingw32/bin/../lib/gcc/nios2-elf/4.1.2/mno-hw-mul\libgcc.a(_usi_to_df.o)
 .debug_info    0x000166d0      0x210 c:/altera/12.1/nios2eds/bin/gnu/h-i686-mingw32/bin/../lib/gcc/nios2-elf/4.1.2/mno-hw-mul\libgcc.a(_muldi3.o)
 .debug_info    0x000168e0       0xc9 c:/altera/12.1/nios2eds/bin/gnu/h-i686-mingw32/bin/../lib/gcc/nios2-elf/4.1.2/mno-hw-mul\libgcc.a(_clz.o)
 .debug_info    0x000169a9      0x130 c:/altera/12.1/nios2eds/bin/gnu/h-i686-mingw32/bin/../lib/gcc/nios2-elf/4.1.2/mno-hw-mul\libgcc.a(_clzsi2.o)
 .debug_info    0x00016ad9      0x2fc c:/altera/12.1/nios2eds/bin/gnu/h-i686-mingw32/bin/../lib/gcc/nios2-elf/4.1.2/mno-hw-mul\libgcc.a(_pack_df.o)
 .debug_info    0x00016dd5      0x268 c:/altera/12.1/nios2eds/bin/gnu/h-i686-mingw32/bin/../lib/gcc/nios2-elf/4.1.2/mno-hw-mul\libgcc.a(_unpack_df.o)
 .debug_info    0x0001703d      0x21b c:/altera/12.1/nios2eds/bin/gnu/h-i686-mingw32/bin/../lib/gcc/nios2-elf/4.1.2/mno-hw-mul\libgcc.a(_fpcmp_parts_df.o)
 .debug_info    0x00017258      0x468 C:/work/fpga/nios2_camera_sdram_lcd/prj_eclipse/nios2_camera_sdram_lcd_bsp/\libhal_bsp.a(alt_close.o)
 .debug_info    0x000176c0      0x680 C:/work/fpga/nios2_camera_sdram_lcd/prj_eclipse/nios2_camera_sdram_lcd_bsp/\libhal_bsp.a(alt_dev.o)
 .debug_info    0x00017d40      0x165 C:/work/fpga/nios2_camera_sdram_lcd/prj_eclipse/nios2_camera_sdram_lcd_bsp/\libhal_bsp.a(alt_errno.o)
 .debug_info    0x00017ea5      0x661 C:/work/fpga/nios2_camera_sdram_lcd/prj_eclipse/nios2_camera_sdram_lcd_bsp/\libhal_bsp.a(alt_fstat.o)
 .debug_info    0x00018506      0x494 C:/work/fpga/nios2_camera_sdram_lcd/prj_eclipse/nios2_camera_sdram_lcd_bsp/\libhal_bsp.a(alt_iic.o)
 .debug_info    0x0001899a      0x315 C:/work/fpga/nios2_camera_sdram_lcd/prj_eclipse/nios2_camera_sdram_lcd_bsp/\libhal_bsp.a(alt_iic_isr_register.o)
 .debug_info    0x00018caf       0x85 C:/work/fpga/nios2_camera_sdram_lcd/prj_eclipse/nios2_camera_sdram_lcd_bsp/\libhal_bsp.a(alt_irq_entry.o)
 .debug_info    0x00018d34      0x276 C:/work/fpga/nios2_camera_sdram_lcd/prj_eclipse/nios2_camera_sdram_lcd_bsp/\libhal_bsp.a(alt_irq_handler.o)
 .debug_info    0x00018faa      0x168 C:/work/fpga/nios2_camera_sdram_lcd/prj_eclipse/nios2_camera_sdram_lcd_bsp/\libhal_bsp.a(alt_irq_vars.o)
 .debug_info    0x00019112      0x667 C:/work/fpga/nios2_camera_sdram_lcd/prj_eclipse/nios2_camera_sdram_lcd_bsp/\libhal_bsp.a(alt_isatty.o)
 .debug_info    0x00019779      0x28e C:/work/fpga/nios2_camera_sdram_lcd/prj_eclipse/nios2_camera_sdram_lcd_bsp/\libhal_bsp.a(alt_load.o)
 .debug_info    0x00019a07      0x49b C:/work/fpga/nios2_camera_sdram_lcd/prj_eclipse/nios2_camera_sdram_lcd_bsp/\libhal_bsp.a(alt_lseek.o)
 .debug_info    0x00019ea2      0x226 C:/work/fpga/nios2_camera_sdram_lcd/prj_eclipse/nios2_camera_sdram_lcd_bsp/\libhal_bsp.a(alt_main.o)
 .debug_info    0x0001a0c8      0xc19 C:/work/fpga/nios2_camera_sdram_lcd/prj_eclipse/nios2_camera_sdram_lcd_bsp/\libhal_bsp.a(alt_malloc_lock.o)
 .debug_info    0x0001ace1      0x68b C:/work/fpga/nios2_camera_sdram_lcd/prj_eclipse/nios2_camera_sdram_lcd_bsp/\libhal_bsp.a(alt_read.o)
 .debug_info    0x0001b36c      0x3f3 C:/work/fpga/nios2_camera_sdram_lcd/prj_eclipse/nios2_camera_sdram_lcd_bsp/\libhal_bsp.a(alt_release_fd.o)
 .debug_info    0x0001b75f      0x2b8 C:/work/fpga/nios2_camera_sdram_lcd/prj_eclipse/nios2_camera_sdram_lcd_bsp/\libhal_bsp.a(alt_sbrk.o)
 .debug_info    0x0001ba17      0x169 C:/work/fpga/nios2_camera_sdram_lcd/prj_eclipse/nios2_camera_sdram_lcd_bsp/\libhal_bsp.a(alt_usleep.o)
 .debug_info    0x0001bb80      0x694 C:/work/fpga/nios2_camera_sdram_lcd/prj_eclipse/nios2_camera_sdram_lcd_bsp/\libhal_bsp.a(alt_write.o)
 .debug_info    0x0001c214      0x6d7 C:/work/fpga/nios2_camera_sdram_lcd/prj_eclipse/nios2_camera_sdram_lcd_bsp/\libhal_bsp.a(alt_sys_init.o)
 .debug_info    0x0001c8eb      0x7da C:/work/fpga/nios2_camera_sdram_lcd/prj_eclipse/nios2_camera_sdram_lcd_bsp/\libhal_bsp.a(altera_avalon_jtag_uart_fd.o)
 .debug_info    0x0001d0c5      0x602 C:/work/fpga/nios2_camera_sdram_lcd/prj_eclipse/nios2_camera_sdram_lcd_bsp/\libhal_bsp.a(altera_avalon_jtag_uart_init.o)
 .debug_info    0x0001d6c7      0x444 C:/work/fpga/nios2_camera_sdram_lcd/prj_eclipse/nios2_camera_sdram_lcd_bsp/\libhal_bsp.a(altera_avalon_jtag_uart_ioctl.o)
 .debug_info    0x0001db0b      0x547 C:/work/fpga/nios2_camera_sdram_lcd/prj_eclipse/nios2_camera_sdram_lcd_bsp/\libhal_bsp.a(altera_avalon_jtag_uart_read.o)
 .debug_info    0x0001e052      0x53f C:/work/fpga/nios2_camera_sdram_lcd/prj_eclipse/nios2_camera_sdram_lcd_bsp/\libhal_bsp.a(altera_avalon_jtag_uart_write.o)
 .debug_info    0x0001e591      0x443 C:/work/fpga/nios2_camera_sdram_lcd/prj_eclipse/nios2_camera_sdram_lcd_bsp/\libhal_bsp.a(alt_alarm_start.o)
 .debug_info    0x0001e9d4      0x1ac C:/work/fpga/nios2_camera_sdram_lcd/prj_eclipse/nios2_camera_sdram_lcd_bsp/\libhal_bsp.a(alt_busy_sleep.o)
 .debug_info    0x0001eb80      0x15d C:/work/fpga/nios2_camera_sdram_lcd/prj_eclipse/nios2_camera_sdram_lcd_bsp/\libhal_bsp.a(alt_dcache_flush_all.o)
 .debug_info    0x0001ecdd      0x2b8 C:/work/fpga/nios2_camera_sdram_lcd/prj_eclipse/nios2_camera_sdram_lcd_bsp/\libhal_bsp.a(alt_dev_llist_insert.o)
 .debug_info    0x0001ef95      0x110 C:/work/fpga/nios2_camera_sdram_lcd/prj_eclipse/nios2_camera_sdram_lcd_bsp/\libhal_bsp.a(alt_do_ctors.o)
 .debug_info    0x0001f0a5      0x10f C:/work/fpga/nios2_camera_sdram_lcd/prj_eclipse/nios2_camera_sdram_lcd_bsp/\libhal_bsp.a(alt_do_dtors.o)
 .debug_info    0x0001f1b4       0x8b C:/work/fpga/nios2_camera_sdram_lcd/prj_eclipse/nios2_camera_sdram_lcd_bsp/\libhal_bsp.a(alt_exception_entry.o)
 .debug_info    0x0001f23f      0x15d C:/work/fpga/nios2_camera_sdram_lcd/prj_eclipse/nios2_camera_sdram_lcd_bsp/\libhal_bsp.a(alt_icache_flush_all.o)
 .debug_info    0x0001f39c      0x696 C:/work/fpga/nios2_camera_sdram_lcd/prj_eclipse/nios2_camera_sdram_lcd_bsp/\libhal_bsp.a(alt_io_redirect.o)
 .debug_info    0x0001fa32      0x526 C:/work/fpga/nios2_camera_sdram_lcd/prj_eclipse/nios2_camera_sdram_lcd_bsp/\libhal_bsp.a(alt_open.o)
 .debug_info    0x0001ff58      0x3ff C:/work/fpga/nios2_camera_sdram_lcd/prj_eclipse/nios2_camera_sdram_lcd_bsp/\libhal_bsp.a(alt_tick.o)
 .debug_info    0x00020357      0x164 C:/work/fpga/nios2_camera_sdram_lcd/prj_eclipse/nios2_camera_sdram_lcd_bsp/\libhal_bsp.a(altera_nios2_qsys_irq.o)
 .debug_info    0x000204bb      0x419 C:/work/fpga/nios2_camera_sdram_lcd/prj_eclipse/nios2_camera_sdram_lcd_bsp/\libhal_bsp.a(alt_find_dev.o)
 .debug_info    0x000208d4      0x420 C:/work/fpga/nios2_camera_sdram_lcd/prj_eclipse/nios2_camera_sdram_lcd_bsp/\libhal_bsp.a(alt_find_file.o)
 .debug_info    0x00020cf4      0x461 C:/work/fpga/nios2_camera_sdram_lcd/prj_eclipse/nios2_camera_sdram_lcd_bsp/\libhal_bsp.a(alt_get_fd.o)
 .debug_info    0x00021155      0x181 c:/altera/12.1/nios2eds/bin/gnu/h-i686-mingw32/bin/../lib/gcc/nios2-elf/4.1.2/../../../../nios2-elf/lib/mno-hw-mul\libc.a(lib_a-atexit.o)
 .debug_info    0x000212d6      0x93f c:/altera/12.1/nios2eds/bin/gnu/h-i686-mingw32/bin/../lib/gcc/nios2-elf/4.1.2/../../../../nios2-elf/lib/mno-hw-mul\libc.a(lib_a-exit.o)
 .debug_info    0x00021c15      0x115 c:/altera/12.1/nios2eds/bin/gnu/h-i686-mingw32/bin/../lib/gcc/nios2-elf/4.1.2/../../../../nios2-elf/lib/mno-hw-mul\libc.a(lib_a-memcmp.o)
 .debug_info    0x00021d2a      0x99c c:/altera/12.1/nios2eds/bin/gnu/h-i686-mingw32/bin/../lib/gcc/nios2-elf/4.1.2/../../../../nios2-elf/lib/mno-hw-mul\libc.a(lib_a-__atexit.o)
 .debug_info    0x000226c6      0x9e2 c:/altera/12.1/nios2eds/bin/gnu/h-i686-mingw32/bin/../lib/gcc/nios2-elf/4.1.2/../../../../nios2-elf/lib/mno-hw-mul\libc.a(lib_a-__call_atexit.o)
 .debug_info    0x000230a8      0x18e C:/work/fpga/nios2_camera_sdram_lcd/prj_eclipse/nios2_camera_sdram_lcd_bsp/\libhal_bsp.a(alt_exit.o)

.debug_abbrev   0x00000000     0x7a31
 *(.debug_abbrev)
 .debug_abbrev  0x00000000       0x12 C:/work/fpga/nios2_camera_sdram_lcd/prj_eclipse/nios2_camera_sdram_lcd_bsp//obj/HAL/src/crt0.o
 .debug_abbrev  0x00000012       0x82 obj/default/avalon_isp_algo_2a.o
 .debug_abbrev  0x00000094       0xb2 obj/default/hello_world.o
 .debug_abbrev  0x00000146      0x100 obj/default/ov5640_drv.o
 .debug_abbrev  0x00000246       0xe0 c:/altera/12.1/nios2eds/bin/gnu/h-i686-mingw32/bin/../lib/gcc/nios2-elf/4.1.2/mno-hw-mul\libgcc.a(lib2-divmod.o)
 .debug_abbrev  0x00000326       0x7b c:/altera/12.1/nios2eds/bin/gnu/h-i686-mingw32/bin/../lib/gcc/nios2-elf/4.1.2/mno-hw-mul\libgcc.a(lib2-mul.o)
 .debug_abbrev  0x000003a1      0x191 c:/altera/12.1/nios2eds/bin/gnu/h-i686-mingw32/bin/../lib/gcc/nios2-elf/4.1.2/../../../../nios2-elf/lib/mno-hw-mul\libc.a(lib_a-printf.o)
 .debug_abbrev  0x00000532      0x1ac c:/altera/12.1/nios2eds/bin/gnu/h-i686-mingw32/bin/../lib/gcc/nios2-elf/4.1.2/../../../../nios2-elf/lib/mno-hw-mul\libc.a(lib_a-puts.o)
 .debug_abbrev  0x000006de       0x8b c:/altera/12.1/nios2eds/bin/gnu/h-i686-mingw32/bin/../lib/gcc/nios2-elf/4.1.2/../../../../nios2-elf/lib/mno-hw-mul\libc.a(lib_a-strlen.o)
 .debug_abbrev  0x00000769      0x30a c:/altera/12.1/nios2eds/bin/gnu/h-i686-mingw32/bin/../lib/gcc/nios2-elf/4.1.2/../../../../nios2-elf/lib/mno-hw-mul\libc.a(lib_a-vfprintf.o)
 .debug_abbrev  0x00000a73      0x170 c:/altera/12.1/nios2eds/bin/gnu/h-i686-mingw32/bin/../lib/gcc/nios2-elf/4.1.2/../../../../nios2-elf/lib/mno-hw-mul\libc.a(lib_a-wsetup.o)
 .debug_abbrev  0x00000be3      0x232 c:/altera/12.1/nios2eds/bin/gnu/h-i686-mingw32/bin/../lib/gcc/nios2-elf/4.1.2/../../../../nios2-elf/lib/mno-hw-mul\libc.a(lib_a-dtoa.o)
 .debug_abbrev  0x00000e15      0x1c6 c:/altera/12.1/nios2eds/bin/gnu/h-i686-mingw32/bin/../lib/gcc/nios2-elf/4.1.2/../../../../nios2-elf/lib/mno-hw-mul\libc.a(lib_a-fflush.o)
 .debug_abbrev  0x00000fdb      0x24c c:/altera/12.1/nios2eds/bin/gnu/h-i686-mingw32/bin/../lib/gcc/nios2-elf/4.1.2/../../../../nios2-elf/lib/mno-hw-mul\libc.a(lib_a-findfp.o)
 .debug_abbrev  0x00001227      0x1d9 c:/altera/12.1/nios2eds/bin/gnu/h-i686-mingw32/bin/../lib/gcc/nios2-elf/4.1.2/../../../../nios2-elf/lib/mno-hw-mul\libc.a(lib_a-freer.o)
 .debug_abbrev  0x00001400      0x1a3 c:/altera/12.1/nios2eds/bin/gnu/h-i686-mingw32/bin/../lib/gcc/nios2-elf/4.1.2/../../../../nios2-elf/lib/mno-hw-mul\libc.a(lib_a-fvwrite.o)
 .debug_abbrev  0x000015a3      0x1e3 c:/altera/12.1/nios2eds/bin/gnu/h-i686-mingw32/bin/../lib/gcc/nios2-elf/4.1.2/../../../../nios2-elf/lib/mno-hw-mul\libc.a(lib_a-fwalk.o)
 .debug_abbrev  0x00001786      0x157 c:/altera/12.1/nios2eds/bin/gnu/h-i686-mingw32/bin/../lib/gcc/nios2-elf/4.1.2/../../../../nios2-elf/lib/mno-hw-mul\libc.a(lib_a-impure.o)
 .debug_abbrev  0x000018dd      0x1ed c:/altera/12.1/nios2eds/bin/gnu/h-i686-mingw32/bin/../lib/gcc/nios2-elf/4.1.2/../../../../nios2-elf/lib/mno-hw-mul\libc.a(lib_a-locale.o)
 .debug_abbrev  0x00001aca      0x197 c:/altera/12.1/nios2eds/bin/gnu/h-i686-mingw32/bin/../lib/gcc/nios2-elf/4.1.2/../../../../nios2-elf/lib/mno-hw-mul\libc.a(lib_a-makebuf.o)
 .debug_abbrev  0x00001c61      0x216 c:/altera/12.1/nios2eds/bin/gnu/h-i686-mingw32/bin/../lib/gcc/nios2-elf/4.1.2/../../../../nios2-elf/lib/mno-hw-mul\libc.a(lib_a-mallocr.o)
 .debug_abbrev  0x00001e77       0xb5 c:/altera/12.1/nios2eds/bin/gnu/h-i686-mingw32/bin/../lib/gcc/nios2-elf/4.1.2/../../../../nios2-elf/lib/mno-hw-mul\libc.a(lib_a-memchr.o)
 .debug_abbrev  0x00001f2c       0xb5 c:/altera/12.1/nios2eds/bin/gnu/h-i686-mingw32/bin/../lib/gcc/nios2-elf/4.1.2/../../../../nios2-elf/lib/mno-hw-mul\libc.a(lib_a-memcpy.o)
 .debug_abbrev  0x00001fe1       0xb5 c:/altera/12.1/nios2eds/bin/gnu/h-i686-mingw32/bin/../lib/gcc/nios2-elf/4.1.2/../../../../nios2-elf/lib/mno-hw-mul\libc.a(lib_a-memmove.o)
 .debug_abbrev  0x00002096       0xb8 c:/altera/12.1/nios2eds/bin/gnu/h-i686-mingw32/bin/../lib/gcc/nios2-elf/4.1.2/../../../../nios2-elf/lib/mno-hw-mul\libc.a(lib_a-memset.o)
 .debug_abbrev  0x0000214e      0x297 c:/altera/12.1/nios2eds/bin/gnu/h-i686-mingw32/bin/../lib/gcc/nios2-elf/4.1.2/../../../../nios2-elf/lib/mno-hw-mul\libc.a(lib_a-mprec.o)
 .debug_abbrev  0x000023e5      0x1c3 c:/altera/12.1/nios2eds/bin/gnu/h-i686-mingw32/bin/../lib/gcc/nios2-elf/4.1.2/../../../../nios2-elf/lib/mno-hw-mul\libc.a(lib_a-reallocr.o)
 .debug_abbrev  0x000025a8       0x79 c:/altera/12.1/nios2eds/bin/gnu/h-i686-mingw32/bin/../lib/gcc/nios2-elf/4.1.2/../../../../nios2-elf/lib/mno-hw-mul\libc.a(lib_a-s_isinfd.o)
 .debug_abbrev  0x00002621       0x79 c:/altera/12.1/nios2eds/bin/gnu/h-i686-mingw32/bin/../lib/gcc/nios2-elf/4.1.2/../../../../nios2-elf/lib/mno-hw-mul\libc.a(lib_a-s_isnand.o)
 .debug_abbrev  0x0000269a      0x18c c:/altera/12.1/nios2eds/bin/gnu/h-i686-mingw32/bin/../lib/gcc/nios2-elf/4.1.2/../../../../nios2-elf/lib/mno-hw-mul\libc.a(lib_a-sbrkr.o)
 .debug_abbrev  0x00002826      0x1c9 c:/altera/12.1/nios2eds/bin/gnu/h-i686-mingw32/bin/../lib/gcc/nios2-elf/4.1.2/../../../../nios2-elf/lib/mno-hw-mul\libc.a(lib_a-stdio.o)
 .debug_abbrev  0x000029ef       0x80 c:/altera/12.1/nios2eds/bin/gnu/h-i686-mingw32/bin/../lib/gcc/nios2-elf/4.1.2/../../../../nios2-elf/lib/mno-hw-mul\libc.a(lib_a-strcmp.o)
 .debug_abbrev  0x00002a6f      0x184 c:/altera/12.1/nios2eds/bin/gnu/h-i686-mingw32/bin/../lib/gcc/nios2-elf/4.1.2/../../../../nios2-elf/lib/mno-hw-mul\libc.a(lib_a-writer.o)
 .debug_abbrev  0x00002bf3      0x1b8 c:/altera/12.1/nios2eds/bin/gnu/h-i686-mingw32/bin/../lib/gcc/nios2-elf/4.1.2/../../../../nios2-elf/lib/mno-hw-mul\libc.a(lib_a-callocr.o)
 .debug_abbrev  0x00002dab      0x17f c:/altera/12.1/nios2eds/bin/gnu/h-i686-mingw32/bin/../lib/gcc/nios2-elf/4.1.2/../../../../nios2-elf/lib/mno-hw-mul\libc.a(lib_a-closer.o)
 .debug_abbrev  0x00002f2a      0x1a7 c:/altera/12.1/nios2eds/bin/gnu/h-i686-mingw32/bin/../lib/gcc/nios2-elf/4.1.2/../../../../nios2-elf/lib/mno-hw-mul\libc.a(lib_a-fclose.o)
 .debug_abbrev  0x000030d1      0x18e c:/altera/12.1/nios2eds/bin/gnu/h-i686-mingw32/bin/../lib/gcc/nios2-elf/4.1.2/../../../../nios2-elf/lib/mno-hw-mul\libc.a(lib_a-fstatr.o)
 .debug_abbrev  0x0000325f       0x3b c:/altera/12.1/nios2eds/bin/gnu/h-i686-mingw32/bin/../lib/gcc/nios2-elf/4.1.2/../../../../nios2-elf/lib/mno-hw-mul\libc.a(lib_a-int_errno.o)
 .debug_abbrev  0x0000329a      0x17f c:/altera/12.1/nios2eds/bin/gnu/h-i686-mingw32/bin/../lib/gcc/nios2-elf/4.1.2/../../../../nios2-elf/lib/mno-hw-mul\libc.a(lib_a-isattyr.o)
 .debug_abbrev  0x00003419      0x18e c:/altera/12.1/nios2eds/bin/gnu/h-i686-mingw32/bin/../lib/gcc/nios2-elf/4.1.2/../../../../nios2-elf/lib/mno-hw-mul\libc.a(lib_a-lseekr.o)
 .debug_abbrev  0x000035a7      0x17f c:/altera/12.1/nios2eds/bin/gnu/h-i686-mingw32/bin/../lib/gcc/nios2-elf/4.1.2/../../../../nios2-elf/lib/mno-hw-mul\libc.a(lib_a-readr.o)
 .debug_abbrev  0x00003726      0x16b c:/altera/12.1/nios2eds/bin/gnu/h-i686-mingw32/bin/../lib/gcc/nios2-elf/4.1.2/mno-hw-mul\libgcc.a(_udivdi3.o)
 .debug_abbrev  0x00003891      0x18e c:/altera/12.1/nios2eds/bin/gnu/h-i686-mingw32/bin/../lib/gcc/nios2-elf/4.1.2/mno-hw-mul\libgcc.a(_umoddi3.o)
 .debug_abbrev  0x00003a1f      0x1d2 c:/altera/12.1/nios2eds/bin/gnu/h-i686-mingw32/bin/../lib/gcc/nios2-elf/4.1.2/mno-hw-mul\libgcc.a(_addsub_df.o)
 .debug_abbrev  0x00003bf1      0x204 c:/altera/12.1/nios2eds/bin/gnu/h-i686-mingw32/bin/../lib/gcc/nios2-elf/4.1.2/mno-hw-mul\libgcc.a(_mul_df.o)
 .debug_abbrev  0x00003df5      0x1e3 c:/altera/12.1/nios2eds/bin/gnu/h-i686-mingw32/bin/../lib/gcc/nios2-elf/4.1.2/mno-hw-mul\libgcc.a(_div_df.o)
 .debug_abbrev  0x00003fd8      0x151 c:/altera/12.1/nios2eds/bin/gnu/h-i686-mingw32/bin/../lib/gcc/nios2-elf/4.1.2/mno-hw-mul\libgcc.a(_eq_df.o)
 .debug_abbrev  0x00004129      0x151 c:/altera/12.1/nios2eds/bin/gnu/h-i686-mingw32/bin/../lib/gcc/nios2-elf/4.1.2/mno-hw-mul\libgcc.a(_ne_df.o)
 .debug_abbrev  0x0000427a      0x151 c:/altera/12.1/nios2eds/bin/gnu/h-i686-mingw32/bin/../lib/gcc/nios2-elf/4.1.2/mno-hw-mul\libgcc.a(_gt_df.o)
 .debug_abbrev  0x000043cb      0x151 c:/altera/12.1/nios2eds/bin/gnu/h-i686-mingw32/bin/../lib/gcc/nios2-elf/4.1.2/mno-hw-mul\libgcc.a(_ge_df.o)
 .debug_abbrev  0x0000451c      0x151 c:/altera/12.1/nios2eds/bin/gnu/h-i686-mingw32/bin/../lib/gcc/nios2-elf/4.1.2/mno-hw-mul\libgcc.a(_lt_df.o)
 .debug_abbrev  0x0000466d      0x13f c:/altera/12.1/nios2eds/bin/gnu/h-i686-mingw32/bin/../lib/gcc/nios2-elf/4.1.2/mno-hw-mul\libgcc.a(_si_to_df.o)
 .debug_abbrev  0x000047ac      0x176 c:/altera/12.1/nios2eds/bin/gnu/h-i686-mingw32/bin/../lib/gcc/nios2-elf/4.1.2/mno-hw-mul\libgcc.a(_df_to_si.o)
 .debug_abbrev  0x00004922       0xba c:/altera/12.1/nios2eds/bin/gnu/h-i686-mingw32/bin/../lib/gcc/nios2-elf/4.1.2/mno-hw-mul\libgcc.a(_thenan_df.o)
 .debug_abbrev  0x000049dc      0x155 c:/altera/12.1/nios2eds/bin/gnu/h-i686-mingw32/bin/../lib/gcc/nios2-elf/4.1.2/mno-hw-mul\libgcc.a(_usi_to_df.o)
 .debug_abbrev  0x00004b31       0xfb c:/altera/12.1/nios2eds/bin/gnu/h-i686-mingw32/bin/../lib/gcc/nios2-elf/4.1.2/mno-hw-mul\libgcc.a(_muldi3.o)
 .debug_abbrev  0x00004c2c       0x61 c:/altera/12.1/nios2eds/bin/gnu/h-i686-mingw32/bin/../lib/gcc/nios2-elf/4.1.2/mno-hw-mul\libgcc.a(_clz.o)
 .debug_abbrev  0x00004c8d       0xb9 c:/altera/12.1/nios2eds/bin/gnu/h-i686-mingw32/bin/../lib/gcc/nios2-elf/4.1.2/mno-hw-mul\libgcc.a(_clzsi2.o)
 .debug_abbrev  0x00004d46      0x1b1 c:/altera/12.1/nios2eds/bin/gnu/h-i686-mingw32/bin/../lib/gcc/nios2-elf/4.1.2/mno-hw-mul\libgcc.a(_pack_df.o)
 .debug_abbrev  0x00004ef7      0x149 c:/altera/12.1/nios2eds/bin/gnu/h-i686-mingw32/bin/../lib/gcc/nios2-elf/4.1.2/mno-hw-mul\libgcc.a(_unpack_df.o)
 .debug_abbrev  0x00005040      0x132 c:/altera/12.1/nios2eds/bin/gnu/h-i686-mingw32/bin/../lib/gcc/nios2-elf/4.1.2/mno-hw-mul\libgcc.a(_fpcmp_parts_df.o)
 .debug_abbrev  0x00005172       0xfb C:/work/fpga/nios2_camera_sdram_lcd/prj_eclipse/nios2_camera_sdram_lcd_bsp/\libhal_bsp.a(alt_close.o)
 .debug_abbrev  0x0000526d       0xc7 C:/work/fpga/nios2_camera_sdram_lcd/prj_eclipse/nios2_camera_sdram_lcd_bsp/\libhal_bsp.a(alt_dev.o)
 .debug_abbrev  0x00005334       0x5e C:/work/fpga/nios2_camera_sdram_lcd/prj_eclipse/nios2_camera_sdram_lcd_bsp/\libhal_bsp.a(alt_errno.o)
 .debug_abbrev  0x00005392       0xfb C:/work/fpga/nios2_camera_sdram_lcd/prj_eclipse/nios2_camera_sdram_lcd_bsp/\libhal_bsp.a(alt_fstat.o)
 .debug_abbrev  0x0000548d      0x134 C:/work/fpga/nios2_camera_sdram_lcd/prj_eclipse/nios2_camera_sdram_lcd_bsp/\libhal_bsp.a(alt_iic.o)
 .debug_abbrev  0x000055c1      0x14e C:/work/fpga/nios2_camera_sdram_lcd/prj_eclipse/nios2_camera_sdram_lcd_bsp/\libhal_bsp.a(alt_iic_isr_register.o)
 .debug_abbrev  0x0000570f       0x12 C:/work/fpga/nios2_camera_sdram_lcd/prj_eclipse/nios2_camera_sdram_lcd_bsp/\libhal_bsp.a(alt_irq_entry.o)
 .debug_abbrev  0x00005721      0x10c C:/work/fpga/nios2_camera_sdram_lcd/prj_eclipse/nios2_camera_sdram_lcd_bsp/\libhal_bsp.a(alt_irq_handler.o)
 .debug_abbrev  0x0000582d       0x44 C:/work/fpga/nios2_camera_sdram_lcd/prj_eclipse/nios2_camera_sdram_lcd_bsp/\libhal_bsp.a(alt_irq_vars.o)
 .debug_abbrev  0x00005871       0xfb C:/work/fpga/nios2_camera_sdram_lcd/prj_eclipse/nios2_camera_sdram_lcd_bsp/\libhal_bsp.a(alt_isatty.o)
 .debug_abbrev  0x0000596c       0x88 C:/work/fpga/nios2_camera_sdram_lcd/prj_eclipse/nios2_camera_sdram_lcd_bsp/\libhal_bsp.a(alt_load.o)
 .debug_abbrev  0x000059f4       0xfb C:/work/fpga/nios2_camera_sdram_lcd/prj_eclipse/nios2_camera_sdram_lcd_bsp/\libhal_bsp.a(alt_lseek.o)
 .debug_abbrev  0x00005aef       0xb7 C:/work/fpga/nios2_camera_sdram_lcd/prj_eclipse/nios2_camera_sdram_lcd_bsp/\libhal_bsp.a(alt_main.o)
 .debug_abbrev  0x00005ba6      0x181 C:/work/fpga/nios2_camera_sdram_lcd/prj_eclipse/nios2_camera_sdram_lcd_bsp/\libhal_bsp.a(alt_malloc_lock.o)
 .debug_abbrev  0x00005d27       0xfb C:/work/fpga/nios2_camera_sdram_lcd/prj_eclipse/nios2_camera_sdram_lcd_bsp/\libhal_bsp.a(alt_read.o)
 .debug_abbrev  0x00005e22       0xc1 C:/work/fpga/nios2_camera_sdram_lcd/prj_eclipse/nios2_camera_sdram_lcd_bsp/\libhal_bsp.a(alt_release_fd.o)
 .debug_abbrev  0x00005ee3      0x115 C:/work/fpga/nios2_camera_sdram_lcd/prj_eclipse/nios2_camera_sdram_lcd_bsp/\libhal_bsp.a(alt_sbrk.o)
 .debug_abbrev  0x00005ff8       0x5d C:/work/fpga/nios2_camera_sdram_lcd/prj_eclipse/nios2_camera_sdram_lcd_bsp/\libhal_bsp.a(alt_usleep.o)
 .debug_abbrev  0x00006055      0x100 C:/work/fpga/nios2_camera_sdram_lcd/prj_eclipse/nios2_camera_sdram_lcd_bsp/\libhal_bsp.a(alt_write.o)
 .debug_abbrev  0x00006155      0x142 C:/work/fpga/nios2_camera_sdram_lcd/prj_eclipse/nios2_camera_sdram_lcd_bsp/\libhal_bsp.a(alt_sys_init.o)
 .debug_abbrev  0x00006297       0xf7 C:/work/fpga/nios2_camera_sdram_lcd/prj_eclipse/nios2_camera_sdram_lcd_bsp/\libhal_bsp.a(altera_avalon_jtag_uart_fd.o)
 .debug_abbrev  0x0000638e      0x17c C:/work/fpga/nios2_camera_sdram_lcd/prj_eclipse/nios2_camera_sdram_lcd_bsp/\libhal_bsp.a(altera_avalon_jtag_uart_init.o)
 .debug_abbrev  0x0000650a       0xf0 C:/work/fpga/nios2_camera_sdram_lcd/prj_eclipse/nios2_camera_sdram_lcd_bsp/\libhal_bsp.a(altera_avalon_jtag_uart_ioctl.o)
 .debug_abbrev  0x000065fa      0x191 C:/work/fpga/nios2_camera_sdram_lcd/prj_eclipse/nios2_camera_sdram_lcd_bsp/\libhal_bsp.a(altera_avalon_jtag_uart_read.o)
 .debug_abbrev  0x0000678b      0x18d C:/work/fpga/nios2_camera_sdram_lcd/prj_eclipse/nios2_camera_sdram_lcd_bsp/\libhal_bsp.a(altera_avalon_jtag_uart_write.o)
 .debug_abbrev  0x00006918      0x172 C:/work/fpga/nios2_camera_sdram_lcd/prj_eclipse/nios2_camera_sdram_lcd_bsp/\libhal_bsp.a(alt_alarm_start.o)
 .debug_abbrev  0x00006a8a       0x6c C:/work/fpga/nios2_camera_sdram_lcd/prj_eclipse/nios2_camera_sdram_lcd_bsp/\libhal_bsp.a(alt_busy_sleep.o)
 .debug_abbrev  0x00006af6       0x3f C:/work/fpga/nios2_camera_sdram_lcd/prj_eclipse/nios2_camera_sdram_lcd_bsp/\libhal_bsp.a(alt_dcache_flush_all.o)
 .debug_abbrev  0x00006b35       0xf6 C:/work/fpga/nios2_camera_sdram_lcd/prj_eclipse/nios2_camera_sdram_lcd_bsp/\libhal_bsp.a(alt_dev_llist_insert.o)
 .debug_abbrev  0x00006c2b       0x76 C:/work/fpga/nios2_camera_sdram_lcd/prj_eclipse/nios2_camera_sdram_lcd_bsp/\libhal_bsp.a(alt_do_ctors.o)
 .debug_abbrev  0x00006ca1       0x76 C:/work/fpga/nios2_camera_sdram_lcd/prj_eclipse/nios2_camera_sdram_lcd_bsp/\libhal_bsp.a(alt_do_dtors.o)
 .debug_abbrev  0x00006d17       0x12 C:/work/fpga/nios2_camera_sdram_lcd/prj_eclipse/nios2_camera_sdram_lcd_bsp/\libhal_bsp.a(alt_exception_entry.o)
 .debug_abbrev  0x00006d29       0x3f C:/work/fpga/nios2_camera_sdram_lcd/prj_eclipse/nios2_camera_sdram_lcd_bsp/\libhal_bsp.a(alt_icache_flush_all.o)
 .debug_abbrev  0x00006d68       0xf0 C:/work/fpga/nios2_camera_sdram_lcd/prj_eclipse/nios2_camera_sdram_lcd_bsp/\libhal_bsp.a(alt_io_redirect.o)
 .debug_abbrev  0x00006e58      0x112 C:/work/fpga/nios2_camera_sdram_lcd/prj_eclipse/nios2_camera_sdram_lcd_bsp/\libhal_bsp.a(alt_open.o)
 .debug_abbrev  0x00006f6a      0x150 C:/work/fpga/nios2_camera_sdram_lcd/prj_eclipse/nios2_camera_sdram_lcd_bsp/\libhal_bsp.a(alt_tick.o)
 .debug_abbrev  0x000070ba       0x3f C:/work/fpga/nios2_camera_sdram_lcd/prj_eclipse/nios2_camera_sdram_lcd_bsp/\libhal_bsp.a(altera_nios2_qsys_irq.o)
 .debug_abbrev  0x000070f9       0xcf C:/work/fpga/nios2_camera_sdram_lcd/prj_eclipse/nios2_camera_sdram_lcd_bsp/\libhal_bsp.a(alt_find_dev.o)
 .debug_abbrev  0x000071c8       0xcf C:/work/fpga/nios2_camera_sdram_lcd/prj_eclipse/nios2_camera_sdram_lcd_bsp/\libhal_bsp.a(alt_find_file.o)
 .debug_abbrev  0x00007297       0xfb C:/work/fpga/nios2_camera_sdram_lcd/prj_eclipse/nios2_camera_sdram_lcd_bsp/\libhal_bsp.a(alt_get_fd.o)
 .debug_abbrev  0x00007392       0xb7 c:/altera/12.1/nios2eds/bin/gnu/h-i686-mingw32/bin/../lib/gcc/nios2-elf/4.1.2/../../../../nios2-elf/lib/mno-hw-mul\libc.a(lib_a-atexit.o)
 .debug_abbrev  0x00007449      0x16e c:/altera/12.1/nios2eds/bin/gnu/h-i686-mingw32/bin/../lib/gcc/nios2-elf/4.1.2/../../../../nios2-elf/lib/mno-hw-mul\libc.a(lib_a-exit.o)
 .debug_abbrev  0x000075b7       0x7c c:/altera/12.1/nios2eds/bin/gnu/h-i686-mingw32/bin/../lib/gcc/nios2-elf/4.1.2/../../../../nios2-elf/lib/mno-hw-mul\libc.a(lib_a-memcmp.o)
 .debug_abbrev  0x00007633      0x1ae c:/altera/12.1/nios2eds/bin/gnu/h-i686-mingw32/bin/../lib/gcc/nios2-elf/4.1.2/../../../../nios2-elf/lib/mno-hw-mul\libc.a(lib_a-__atexit.o)
 .debug_abbrev  0x000077e1      0x1de c:/altera/12.1/nios2eds/bin/gnu/h-i686-mingw32/bin/../lib/gcc/nios2-elf/4.1.2/../../../../nios2-elf/lib/mno-hw-mul\libc.a(lib_a-__call_atexit.o)
 .debug_abbrev  0x000079bf       0x72 C:/work/fpga/nios2_camera_sdram_lcd/prj_eclipse/nios2_camera_sdram_lcd_bsp/\libhal_bsp.a(alt_exit.o)

.debug_line     0x00000000    0x1444f
 *(.debug_line)
 .debug_line    0x00000000       0x66 C:/work/fpga/nios2_camera_sdram_lcd/prj_eclipse/nios2_camera_sdram_lcd_bsp//obj/HAL/src/crt0.o
 .debug_line    0x00000066      0x386 obj/default/avalon_isp_algo_2a.o
 .debug_line    0x000003ec      0x57d obj/default/hello_world.o
 .debug_line    0x00000969      0x928 obj/default/ov5640_drv.o
 .debug_line    0x00001291      0x24f c:/altera/12.1/nios2eds/bin/gnu/h-i686-mingw32/bin/../lib/gcc/nios2-elf/4.1.2/mno-hw-mul\libgcc.a(lib2-divmod.o)
 .debug_line    0x000014e0      0x11a c:/altera/12.1/nios2eds/bin/gnu/h-i686-mingw32/bin/../lib/gcc/nios2-elf/4.1.2/mno-hw-mul\libgcc.a(lib2-mul.o)
 .debug_line    0x000015fa      0x298 c:/altera/12.1/nios2eds/bin/gnu/h-i686-mingw32/bin/../lib/gcc/nios2-elf/4.1.2/../../../../nios2-elf/lib/mno-hw-mul\libc.a(lib_a-printf.o)
 .debug_line    0x00001892      0x2f4 c:/altera/12.1/nios2eds/bin/gnu/h-i686-mingw32/bin/../lib/gcc/nios2-elf/4.1.2/../../../../nios2-elf/lib/mno-hw-mul\libc.a(lib_a-puts.o)
 .debug_line    0x00001b86      0x267 c:/altera/12.1/nios2eds/bin/gnu/h-i686-mingw32/bin/../lib/gcc/nios2-elf/4.1.2/../../../../nios2-elf/lib/mno-hw-mul\libc.a(lib_a-strlen.o)
 .debug_line    0x00001ded     0x1109 c:/altera/12.1/nios2eds/bin/gnu/h-i686-mingw32/bin/../lib/gcc/nios2-elf/4.1.2/../../../../nios2-elf/lib/mno-hw-mul\libc.a(lib_a-vfprintf.o)
 .debug_line    0x00002ef6      0x2ed c:/altera/12.1/nios2eds/bin/gnu/h-i686-mingw32/bin/../lib/gcc/nios2-elf/4.1.2/../../../../nios2-elf/lib/mno-hw-mul\libc.a(lib_a-wsetup.o)
 .debug_line    0x000031e3     0x1303 c:/altera/12.1/nios2eds/bin/gnu/h-i686-mingw32/bin/../lib/gcc/nios2-elf/4.1.2/../../../../nios2-elf/lib/mno-hw-mul\libc.a(lib_a-dtoa.o)
 .debug_line    0x000044e6      0x40a c:/altera/12.1/nios2eds/bin/gnu/h-i686-mingw32/bin/../lib/gcc/nios2-elf/4.1.2/../../../../nios2-elf/lib/mno-hw-mul\libc.a(lib_a-fflush.o)
 .debug_line    0x000048f0      0x606 c:/altera/12.1/nios2eds/bin/gnu/h-i686-mingw32/bin/../lib/gcc/nios2-elf/4.1.2/../../../../nios2-elf/lib/mno-hw-mul\libc.a(lib_a-findfp.o)
 .debug_line    0x00004ef6      0x5e8 c:/altera/12.1/nios2eds/bin/gnu/h-i686-mingw32/bin/../lib/gcc/nios2-elf/4.1.2/../../../../nios2-elf/lib/mno-hw-mul\libc.a(lib_a-freer.o)
 .debug_line    0x000054de      0x63e c:/altera/12.1/nios2eds/bin/gnu/h-i686-mingw32/bin/../lib/gcc/nios2-elf/4.1.2/../../../../nios2-elf/lib/mno-hw-mul\libc.a(lib_a-fvwrite.o)
 .debug_line    0x00005b1c      0x347 c:/altera/12.1/nios2eds/bin/gnu/h-i686-mingw32/bin/../lib/gcc/nios2-elf/4.1.2/../../../../nios2-elf/lib/mno-hw-mul\libc.a(lib_a-fwalk.o)
 .debug_line    0x00005e63      0x227 c:/altera/12.1/nios2eds/bin/gnu/h-i686-mingw32/bin/../lib/gcc/nios2-elf/4.1.2/../../../../nios2-elf/lib/mno-hw-mul\libc.a(lib_a-impure.o)
 .debug_line    0x0000608a      0x2c5 c:/altera/12.1/nios2eds/bin/gnu/h-i686-mingw32/bin/../lib/gcc/nios2-elf/4.1.2/../../../../nios2-elf/lib/mno-hw-mul\libc.a(lib_a-locale.o)
 .debug_line    0x0000634f      0x3c0 c:/altera/12.1/nios2eds/bin/gnu/h-i686-mingw32/bin/../lib/gcc/nios2-elf/4.1.2/../../../../nios2-elf/lib/mno-hw-mul\libc.a(lib_a-makebuf.o)
 .debug_line    0x0000670f      0x807 c:/altera/12.1/nios2eds/bin/gnu/h-i686-mingw32/bin/../lib/gcc/nios2-elf/4.1.2/../../../../nios2-elf/lib/mno-hw-mul\libc.a(lib_a-mallocr.o)
 .debug_line    0x00006f16      0x2fd c:/altera/12.1/nios2eds/bin/gnu/h-i686-mingw32/bin/../lib/gcc/nios2-elf/4.1.2/../../../../nios2-elf/lib/mno-hw-mul\libc.a(lib_a-memchr.o)
 .debug_line    0x00007213      0x1ac c:/altera/12.1/nios2eds/bin/gnu/h-i686-mingw32/bin/../lib/gcc/nios2-elf/4.1.2/../../../../nios2-elf/lib/mno-hw-mul\libc.a(lib_a-memcpy.o)
 .debug_line    0x000073bf      0x304 c:/altera/12.1/nios2eds/bin/gnu/h-i686-mingw32/bin/../lib/gcc/nios2-elf/4.1.2/../../../../nios2-elf/lib/mno-hw-mul\libc.a(lib_a-memmove.o)
 .debug_line    0x000076c3      0x2fb c:/altera/12.1/nios2eds/bin/gnu/h-i686-mingw32/bin/../lib/gcc/nios2-elf/4.1.2/../../../../nios2-elf/lib/mno-hw-mul\libc.a(lib_a-memset.o)
 .debug_line    0x000079be     0x1258 c:/altera/12.1/nios2eds/bin/gnu/h-i686-mingw32/bin/../lib/gcc/nios2-elf/4.1.2/../../../../nios2-elf/lib/mno-hw-mul\libc.a(lib_a-mprec.o)
 .debug_line    0x00008c16      0x587 c:/altera/12.1/nios2eds/bin/gnu/h-i686-mingw32/bin/../lib/gcc/nios2-elf/4.1.2/../../../../nios2-elf/lib/mno-hw-mul\libc.a(lib_a-reallocr.o)
 .debug_line    0x0000919d      0x21f c:/altera/12.1/nios2eds/bin/gnu/h-i686-mingw32/bin/../lib/gcc/nios2-elf/4.1.2/../../../../nios2-elf/lib/mno-hw-mul\libc.a(lib_a-s_isinfd.o)
 .debug_line    0x000093bc      0x217 c:/altera/12.1/nios2eds/bin/gnu/h-i686-mingw32/bin/../lib/gcc/nios2-elf/4.1.2/../../../../nios2-elf/lib/mno-hw-mul\libc.a(lib_a-s_isnand.o)
 .debug_line    0x000095d3      0x293 c:/altera/12.1/nios2eds/bin/gnu/h-i686-mingw32/bin/../lib/gcc/nios2-elf/4.1.2/../../../../nios2-elf/lib/mno-hw-mul\libc.a(lib_a-sbrkr.o)
 .debug_line    0x00009866      0x389 c:/altera/12.1/nios2eds/bin/gnu/h-i686-mingw32/bin/../lib/gcc/nios2-elf/4.1.2/../../../../nios2-elf/lib/mno-hw-mul\libc.a(lib_a-stdio.o)
 .debug_line    0x00009bef      0x2cf c:/altera/12.1/nios2eds/bin/gnu/h-i686-mingw32/bin/../lib/gcc/nios2-elf/4.1.2/../../../../nios2-elf/lib/mno-hw-mul\libc.a(lib_a-strcmp.o)
 .debug_line    0x00009ebe      0x294 c:/altera/12.1/nios2eds/bin/gnu/h-i686-mingw32/bin/../lib/gcc/nios2-elf/4.1.2/../../../../nios2-elf/lib/mno-hw-mul\libc.a(lib_a-writer.o)
 .debug_line    0x0000a152      0x259 c:/altera/12.1/nios2eds/bin/gnu/h-i686-mingw32/bin/../lib/gcc/nios2-elf/4.1.2/../../../../nios2-elf/lib/mno-hw-mul\libc.a(lib_a-callocr.o)
 .debug_line    0x0000a3ab      0x294 c:/altera/12.1/nios2eds/bin/gnu/h-i686-mingw32/bin/../lib/gcc/nios2-elf/4.1.2/../../../../nios2-elf/lib/mno-hw-mul\libc.a(lib_a-closer.o)
 .debug_line    0x0000a63f      0x2e5 c:/altera/12.1/nios2eds/bin/gnu/h-i686-mingw32/bin/../lib/gcc/nios2-elf/4.1.2/../../../../nios2-elf/lib/mno-hw-mul\libc.a(lib_a-fclose.o)
 .debug_line    0x0000a924      0x261 c:/altera/12.1/nios2eds/bin/gnu/h-i686-mingw32/bin/../lib/gcc/nios2-elf/4.1.2/../../../../nios2-elf/lib/mno-hw-mul\libc.a(lib_a-fstatr.o)
 .debug_line    0x0000ab85      0x1dc c:/altera/12.1/nios2eds/bin/gnu/h-i686-mingw32/bin/../lib/gcc/nios2-elf/4.1.2/../../../../nios2-elf/lib/mno-hw-mul\libc.a(lib_a-int_errno.o)
 .debug_line    0x0000ad61      0x295 c:/altera/12.1/nios2eds/bin/gnu/h-i686-mingw32/bin/../lib/gcc/nios2-elf/4.1.2/../../../../nios2-elf/lib/mno-hw-mul\libc.a(lib_a-isattyr.o)
 .debug_line    0x0000aff6      0x294 c:/altera/12.1/nios2eds/bin/gnu/h-i686-mingw32/bin/../lib/gcc/nios2-elf/4.1.2/../../../../nios2-elf/lib/mno-hw-mul\libc.a(lib_a-lseekr.o)
 .debug_line    0x0000b28a      0x293 c:/altera/12.1/nios2eds/bin/gnu/h-i686-mingw32/bin/../lib/gcc/nios2-elf/4.1.2/../../../../nios2-elf/lib/mno-hw-mul\libc.a(lib_a-readr.o)
 .debug_line    0x0000b51d      0x2f2 c:/altera/12.1/nios2eds/bin/gnu/h-i686-mingw32/bin/../lib/gcc/nios2-elf/4.1.2/mno-hw-mul\libgcc.a(_udivdi3.o)
 .debug_line    0x0000b80f      0x405 c:/altera/12.1/nios2eds/bin/gnu/h-i686-mingw32/bin/../lib/gcc/nios2-elf/4.1.2/mno-hw-mul\libgcc.a(_umoddi3.o)
 .debug_line    0x0000bc14      0x430 c:/altera/12.1/nios2eds/bin/gnu/h-i686-mingw32/bin/../lib/gcc/nios2-elf/4.1.2/mno-hw-mul\libgcc.a(_addsub_df.o)
 .debug_line    0x0000c044      0x3e5 c:/altera/12.1/nios2eds/bin/gnu/h-i686-mingw32/bin/../lib/gcc/nios2-elf/4.1.2/mno-hw-mul\libgcc.a(_mul_df.o)
 .debug_line    0x0000c429      0x301 c:/altera/12.1/nios2eds/bin/gnu/h-i686-mingw32/bin/../lib/gcc/nios2-elf/4.1.2/mno-hw-mul\libgcc.a(_div_df.o)
 .debug_line    0x0000c72a      0x129 c:/altera/12.1/nios2eds/bin/gnu/h-i686-mingw32/bin/../lib/gcc/nios2-elf/4.1.2/mno-hw-mul\libgcc.a(_eq_df.o)
 .debug_line    0x0000c853      0x129 c:/altera/12.1/nios2eds/bin/gnu/h-i686-mingw32/bin/../lib/gcc/nios2-elf/4.1.2/mno-hw-mul\libgcc.a(_ne_df.o)
 .debug_line    0x0000c97c      0x129 c:/altera/12.1/nios2eds/bin/gnu/h-i686-mingw32/bin/../lib/gcc/nios2-elf/4.1.2/mno-hw-mul\libgcc.a(_gt_df.o)
 .debug_line    0x0000caa5      0x129 c:/altera/12.1/nios2eds/bin/gnu/h-i686-mingw32/bin/../lib/gcc/nios2-elf/4.1.2/mno-hw-mul\libgcc.a(_ge_df.o)
 .debug_line    0x0000cbce      0x129 c:/altera/12.1/nios2eds/bin/gnu/h-i686-mingw32/bin/../lib/gcc/nios2-elf/4.1.2/mno-hw-mul\libgcc.a(_lt_df.o)
 .debug_line    0x0000ccf7      0x175 c:/altera/12.1/nios2eds/bin/gnu/h-i686-mingw32/bin/../lib/gcc/nios2-elf/4.1.2/mno-hw-mul\libgcc.a(_si_to_df.o)
 .debug_line    0x0000ce6c      0x149 c:/altera/12.1/nios2eds/bin/gnu/h-i686-mingw32/bin/../lib/gcc/nios2-elf/4.1.2/mno-hw-mul\libgcc.a(_df_to_si.o)
 .debug_line    0x0000cfb5       0x94 c:/altera/12.1/nios2eds/bin/gnu/h-i686-mingw32/bin/../lib/gcc/nios2-elf/4.1.2/mno-hw-mul\libgcc.a(_thenan_df.o)
 .debug_line    0x0000d049      0x189 c:/altera/12.1/nios2eds/bin/gnu/h-i686-mingw32/bin/../lib/gcc/nios2-elf/4.1.2/mno-hw-mul\libgcc.a(_usi_to_df.o)
 .debug_line    0x0000d1d2      0x14f c:/altera/12.1/nios2eds/bin/gnu/h-i686-mingw32/bin/../lib/gcc/nios2-elf/4.1.2/mno-hw-mul\libgcc.a(_muldi3.o)
 .debug_line    0x0000d321       0xaa c:/altera/12.1/nios2eds/bin/gnu/h-i686-mingw32/bin/../lib/gcc/nios2-elf/4.1.2/mno-hw-mul\libgcc.a(_clz.o)
 .debug_line    0x0000d3cb      0x105 c:/altera/12.1/nios2eds/bin/gnu/h-i686-mingw32/bin/../lib/gcc/nios2-elf/4.1.2/mno-hw-mul\libgcc.a(_clzsi2.o)
 .debug_line    0x0000d4d0      0x222 c:/altera/12.1/nios2eds/bin/gnu/h-i686-mingw32/bin/../lib/gcc/nios2-elf/4.1.2/mno-hw-mul\libgcc.a(_pack_df.o)
 .debug_line    0x0000d6f2      0x1e4 c:/altera/12.1/nios2eds/bin/gnu/h-i686-mingw32/bin/../lib/gcc/nios2-elf/4.1.2/mno-hw-mul\libgcc.a(_unpack_df.o)
 .debug_line    0x0000d8d6      0x187 c:/altera/12.1/nios2eds/bin/gnu/h-i686-mingw32/bin/../lib/gcc/nios2-elf/4.1.2/mno-hw-mul\libgcc.a(_fpcmp_parts_df.o)
 .debug_line    0x0000da5d      0x293 C:/work/fpga/nios2_camera_sdram_lcd/prj_eclipse/nios2_camera_sdram_lcd_bsp/\libhal_bsp.a(alt_close.o)
 .debug_line    0x0000dcf0      0x24e C:/work/fpga/nios2_camera_sdram_lcd/prj_eclipse/nios2_camera_sdram_lcd_bsp/\libhal_bsp.a(alt_dev.o)
 .debug_line    0x0000df3e      0x1a4 C:/work/fpga/nios2_camera_sdram_lcd/prj_eclipse/nios2_camera_sdram_lcd_bsp/\libhal_bsp.a(alt_errno.o)
 .debug_line    0x0000e0e2      0x29b C:/work/fpga/nios2_camera_sdram_lcd/prj_eclipse/nios2_camera_sdram_lcd_bsp/\libhal_bsp.a(alt_fstat.o)
 .debug_line    0x0000e37d      0x2c2 C:/work/fpga/nios2_camera_sdram_lcd/prj_eclipse/nios2_camera_sdram_lcd_bsp/\libhal_bsp.a(alt_iic.o)
 .debug_line    0x0000e63f      0x243 C:/work/fpga/nios2_camera_sdram_lcd/prj_eclipse/nios2_camera_sdram_lcd_bsp/\libhal_bsp.a(alt_iic_isr_register.o)
 .debug_line    0x0000e882       0x6b C:/work/fpga/nios2_camera_sdram_lcd/prj_eclipse/nios2_camera_sdram_lcd_bsp/\libhal_bsp.a(alt_irq_entry.o)
 .debug_line    0x0000e8ed      0x242 C:/work/fpga/nios2_camera_sdram_lcd/prj_eclipse/nios2_camera_sdram_lcd_bsp/\libhal_bsp.a(alt_irq_handler.o)
 .debug_line    0x0000eb2f       0x72 C:/work/fpga/nios2_camera_sdram_lcd/prj_eclipse/nios2_camera_sdram_lcd_bsp/\libhal_bsp.a(alt_irq_vars.o)
 .debug_line    0x0000eba1      0x29c C:/work/fpga/nios2_camera_sdram_lcd/prj_eclipse/nios2_camera_sdram_lcd_bsp/\libhal_bsp.a(alt_isatty.o)
 .debug_line    0x0000ee3d      0x211 C:/work/fpga/nios2_camera_sdram_lcd/prj_eclipse/nios2_camera_sdram_lcd_bsp/\libhal_bsp.a(alt_load.o)
 .debug_line    0x0000f04e      0x29b C:/work/fpga/nios2_camera_sdram_lcd/prj_eclipse/nios2_camera_sdram_lcd_bsp/\libhal_bsp.a(alt_lseek.o)
 .debug_line    0x0000f2e9      0x2c4 C:/work/fpga/nios2_camera_sdram_lcd/prj_eclipse/nios2_camera_sdram_lcd_bsp/\libhal_bsp.a(alt_main.o)
 .debug_line    0x0000f5ad      0x206 C:/work/fpga/nios2_camera_sdram_lcd/prj_eclipse/nios2_camera_sdram_lcd_bsp/\libhal_bsp.a(alt_malloc_lock.o)
 .debug_line    0x0000f7b3      0x2c2 C:/work/fpga/nios2_camera_sdram_lcd/prj_eclipse/nios2_camera_sdram_lcd_bsp/\libhal_bsp.a(alt_read.o)
 .debug_line    0x0000fa75       0xed C:/work/fpga/nios2_camera_sdram_lcd/prj_eclipse/nios2_camera_sdram_lcd_bsp/\libhal_bsp.a(alt_release_fd.o)
 .debug_line    0x0000fb62      0x25b C:/work/fpga/nios2_camera_sdram_lcd/prj_eclipse/nios2_camera_sdram_lcd_bsp/\libhal_bsp.a(alt_sbrk.o)
 .debug_line    0x0000fdbd      0x1f9 C:/work/fpga/nios2_camera_sdram_lcd/prj_eclipse/nios2_camera_sdram_lcd_bsp/\libhal_bsp.a(alt_usleep.o)
 .debug_line    0x0000ffb6      0x2c3 C:/work/fpga/nios2_camera_sdram_lcd/prj_eclipse/nios2_camera_sdram_lcd_bsp/\libhal_bsp.a(alt_write.o)
 .debug_line    0x00010279      0x2a0 C:/work/fpga/nios2_camera_sdram_lcd/prj_eclipse/nios2_camera_sdram_lcd_bsp/\libhal_bsp.a(alt_sys_init.o)
 .debug_line    0x00010519      0x214 C:/work/fpga/nios2_camera_sdram_lcd/prj_eclipse/nios2_camera_sdram_lcd_bsp/\libhal_bsp.a(altera_avalon_jtag_uart_fd.o)
 .debug_line    0x0001072d      0x4a5 C:/work/fpga/nios2_camera_sdram_lcd/prj_eclipse/nios2_camera_sdram_lcd_bsp/\libhal_bsp.a(altera_avalon_jtag_uart_init.o)
 .debug_line    0x00010bd2      0x311 C:/work/fpga/nios2_camera_sdram_lcd/prj_eclipse/nios2_camera_sdram_lcd_bsp/\libhal_bsp.a(altera_avalon_jtag_uart_ioctl.o)
 .debug_line    0x00010ee3      0x3f1 C:/work/fpga/nios2_camera_sdram_lcd/prj_eclipse/nios2_camera_sdram_lcd_bsp/\libhal_bsp.a(altera_avalon_jtag_uart_read.o)
 .debug_line    0x000112d4      0x3ff C:/work/fpga/nios2_camera_sdram_lcd/prj_eclipse/nios2_camera_sdram_lcd_bsp/\libhal_bsp.a(altera_avalon_jtag_uart_write.o)
 .debug_line    0x000116d3      0x2d6 C:/work/fpga/nios2_camera_sdram_lcd/prj_eclipse/nios2_camera_sdram_lcd_bsp/\libhal_bsp.a(alt_alarm_start.o)
 .debug_line    0x000119a9      0x253 C:/work/fpga/nios2_camera_sdram_lcd/prj_eclipse/nios2_camera_sdram_lcd_bsp/\libhal_bsp.a(alt_busy_sleep.o)
 .debug_line    0x00011bfc      0x1af C:/work/fpga/nios2_camera_sdram_lcd/prj_eclipse/nios2_camera_sdram_lcd_bsp/\libhal_bsp.a(alt_dcache_flush_all.o)
 .debug_line    0x00011dab      0x254 C:/work/fpga/nios2_camera_sdram_lcd/prj_eclipse/nios2_camera_sdram_lcd_bsp/\libhal_bsp.a(alt_dev_llist_insert.o)
 .debug_line    0x00011fff       0x83 C:/work/fpga/nios2_camera_sdram_lcd/prj_eclipse/nios2_camera_sdram_lcd_bsp/\libhal_bsp.a(alt_do_ctors.o)
 .debug_line    0x00012082       0x83 C:/work/fpga/nios2_camera_sdram_lcd/prj_eclipse/nios2_camera_sdram_lcd_bsp/\libhal_bsp.a(alt_do_dtors.o)
 .debug_line    0x00012105       0xab C:/work/fpga/nios2_camera_sdram_lcd/prj_eclipse/nios2_camera_sdram_lcd_bsp/\libhal_bsp.a(alt_exception_entry.o)
 .debug_line    0x000121b0      0x1af C:/work/fpga/nios2_camera_sdram_lcd/prj_eclipse/nios2_camera_sdram_lcd_bsp/\libhal_bsp.a(alt_icache_flush_all.o)
 .debug_line    0x0001235f      0x2ae C:/work/fpga/nios2_camera_sdram_lcd/prj_eclipse/nios2_camera_sdram_lcd_bsp/\libhal_bsp.a(alt_io_redirect.o)
 .debug_line    0x0001260d      0x2f9 C:/work/fpga/nios2_camera_sdram_lcd/prj_eclipse/nios2_camera_sdram_lcd_bsp/\libhal_bsp.a(alt_open.o)
 .debug_line    0x00012906      0x2d6 C:/work/fpga/nios2_camera_sdram_lcd/prj_eclipse/nios2_camera_sdram_lcd_bsp/\libhal_bsp.a(alt_tick.o)
 .debug_line    0x00012bdc      0x1c8 C:/work/fpga/nios2_camera_sdram_lcd/prj_eclipse/nios2_camera_sdram_lcd_bsp/\libhal_bsp.a(altera_nios2_qsys_irq.o)
 .debug_line    0x00012da4      0x265 C:/work/fpga/nios2_camera_sdram_lcd/prj_eclipse/nios2_camera_sdram_lcd_bsp/\libhal_bsp.a(alt_find_dev.o)
 .debug_line    0x00013009      0x276 C:/work/fpga/nios2_camera_sdram_lcd/prj_eclipse/nios2_camera_sdram_lcd_bsp/\libhal_bsp.a(alt_find_file.o)
 .debug_line    0x0001327f      0x291 C:/work/fpga/nios2_camera_sdram_lcd/prj_eclipse/nios2_camera_sdram_lcd_bsp/\libhal_bsp.a(alt_get_fd.o)
 .debug_line    0x00013510      0x1fd c:/altera/12.1/nios2eds/bin/gnu/h-i686-mingw32/bin/../lib/gcc/nios2-elf/4.1.2/../../../../nios2-elf/lib/mno-hw-mul\libc.a(lib_a-atexit.o)
 .debug_line    0x0001370d      0x235 c:/altera/12.1/nios2eds/bin/gnu/h-i686-mingw32/bin/../lib/gcc/nios2-elf/4.1.2/../../../../nios2-elf/lib/mno-hw-mul\libc.a(lib_a-exit.o)
 .debug_line    0x00013942      0x299 c:/altera/12.1/nios2eds/bin/gnu/h-i686-mingw32/bin/../lib/gcc/nios2-elf/4.1.2/../../../../nios2-elf/lib/mno-hw-mul\libc.a(lib_a-memcmp.o)
 .debug_line    0x00013bdb      0x310 c:/altera/12.1/nios2eds/bin/gnu/h-i686-mingw32/bin/../lib/gcc/nios2-elf/4.1.2/../../../../nios2-elf/lib/mno-hw-mul\libc.a(lib_a-__atexit.o)
 .debug_line    0x00013eeb      0x364 c:/altera/12.1/nios2eds/bin/gnu/h-i686-mingw32/bin/../lib/gcc/nios2-elf/4.1.2/../../../../nios2-elf/lib/mno-hw-mul\libc.a(lib_a-__call_atexit.o)
 .debug_line    0x0001424f      0x200 C:/work/fpga/nios2_camera_sdram_lcd/prj_eclipse/nios2_camera_sdram_lcd_bsp/\libhal_bsp.a(alt_exit.o)

.debug_frame    0x00000000     0x19f0
 *(.debug_frame)
 .debug_frame   0x00000000       0x4c obj/default/avalon_isp_algo_2a.o
 .debug_frame   0x0000004c       0x9c obj/default/hello_world.o
 .debug_frame   0x000000e8       0xf0 obj/default/ov5640_drv.o
 .debug_frame   0x000001d8       0x70 c:/altera/12.1/nios2eds/bin/gnu/h-i686-mingw32/bin/../lib/gcc/nios2-elf/4.1.2/mno-hw-mul\libgcc.a(lib2-divmod.o)
 .debug_frame   0x00000248       0x20 c:/altera/12.1/nios2eds/bin/gnu/h-i686-mingw32/bin/../lib/gcc/nios2-elf/4.1.2/mno-hw-mul\libgcc.a(lib2-mul.o)
 .debug_frame   0x00000268       0x40 c:/altera/12.1/nios2eds/bin/gnu/h-i686-mingw32/bin/../lib/gcc/nios2-elf/4.1.2/../../../../nios2-elf/lib/mno-hw-mul\libc.a(lib_a-printf.o)
 .debug_frame   0x000002a8       0x3c c:/altera/12.1/nios2eds/bin/gnu/h-i686-mingw32/bin/../lib/gcc/nios2-elf/4.1.2/../../../../nios2-elf/lib/mno-hw-mul\libc.a(lib_a-puts.o)
 .debug_frame   0x000002e4       0x20 c:/altera/12.1/nios2eds/bin/gnu/h-i686-mingw32/bin/../lib/gcc/nios2-elf/4.1.2/../../../../nios2-elf/lib/mno-hw-mul\libc.a(lib_a-strlen.o)
 .debug_frame   0x00000304       0x64 c:/altera/12.1/nios2eds/bin/gnu/h-i686-mingw32/bin/../lib/gcc/nios2-elf/4.1.2/../../../../nios2-elf/lib/mno-hw-mul\libc.a(lib_a-vfprintf.o)
 .debug_frame   0x00000368       0x2c c:/altera/12.1/nios2eds/bin/gnu/h-i686-mingw32/bin/../lib/gcc/nios2-elf/4.1.2/../../../../nios2-elf/lib/mno-hw-mul\libc.a(lib_a-wsetup.o)
 .debug_frame   0x00000394       0x64 c:/altera/12.1/nios2eds/bin/gnu/h-i686-mingw32/bin/../lib/gcc/nios2-elf/4.1.2/../../../../nios2-elf/lib/mno-hw-mul\libc.a(lib_a-dtoa.o)
 .debug_frame   0x000003f8       0x40 c:/altera/12.1/nios2eds/bin/gnu/h-i686-mingw32/bin/../lib/gcc/nios2-elf/4.1.2/../../../../nios2-elf/lib/mno-hw-mul\libc.a(lib_a-fflush.o)
 .debug_frame   0x00000438      0x118 c:/altera/12.1/nios2eds/bin/gnu/h-i686-mingw32/bin/../lib/gcc/nios2-elf/4.1.2/../../../../nios2-elf/lib/mno-hw-mul\libc.a(lib_a-findfp.o)
 .debug_frame   0x00000550       0x4c c:/altera/12.1/nios2eds/bin/gnu/h-i686-mingw32/bin/../lib/gcc/nios2-elf/4.1.2/../../../../nios2-elf/lib/mno-hw-mul\libc.a(lib_a-freer.o)
 .debug_frame   0x0000059c       0x38 c:/altera/12.1/nios2eds/bin/gnu/h-i686-mingw32/bin/../lib/gcc/nios2-elf/4.1.2/../../../../nios2-elf/lib/mno-hw-mul\libc.a(lib_a-fvwrite.o)
 .debug_frame   0x000005d4       0x60 c:/altera/12.1/nios2eds/bin/gnu/h-i686-mingw32/bin/../lib/gcc/nios2-elf/4.1.2/../../../../nios2-elf/lib/mno-hw-mul\libc.a(lib_a-fwalk.o)
 .debug_frame   0x00000634       0x70 c:/altera/12.1/nios2eds/bin/gnu/h-i686-mingw32/bin/../lib/gcc/nios2-elf/4.1.2/../../../../nios2-elf/lib/mno-hw-mul\libc.a(lib_a-locale.o)
 .debug_frame   0x000006a4       0x2c c:/altera/12.1/nios2eds/bin/gnu/h-i686-mingw32/bin/../lib/gcc/nios2-elf/4.1.2/../../../../nios2-elf/lib/mno-hw-mul\libc.a(lib_a-makebuf.o)
 .debug_frame   0x000006d0       0x38 c:/altera/12.1/nios2eds/bin/gnu/h-i686-mingw32/bin/../lib/gcc/nios2-elf/4.1.2/../../../../nios2-elf/lib/mno-hw-mul\libc.a(lib_a-mallocr.o)
 .debug_frame   0x00000708       0x20 c:/altera/12.1/nios2eds/bin/gnu/h-i686-mingw32/bin/../lib/gcc/nios2-elf/4.1.2/../../../../nios2-elf/lib/mno-hw-mul\libc.a(lib_a-memchr.o)
 .debug_frame   0x00000728       0x20 c:/altera/12.1/nios2eds/bin/gnu/h-i686-mingw32/bin/../lib/gcc/nios2-elf/4.1.2/../../../../nios2-elf/lib/mno-hw-mul\libc.a(lib_a-memcpy.o)
 .debug_frame   0x00000748       0x20 c:/altera/12.1/nios2eds/bin/gnu/h-i686-mingw32/bin/../lib/gcc/nios2-elf/4.1.2/../../../../nios2-elf/lib/mno-hw-mul\libc.a(lib_a-memmove.o)
 .debug_frame   0x00000768       0x20 c:/altera/12.1/nios2eds/bin/gnu/h-i686-mingw32/bin/../lib/gcc/nios2-elf/4.1.2/../../../../nios2-elf/lib/mno-hw-mul\libc.a(lib_a-memset.o)
 .debug_frame   0x00000788      0x228 c:/altera/12.1/nios2eds/bin/gnu/h-i686-mingw32/bin/../lib/gcc/nios2-elf/4.1.2/../../../../nios2-elf/lib/mno-hw-mul\libc.a(lib_a-mprec.o)
 .debug_frame   0x000009b0       0x38 c:/altera/12.1/nios2eds/bin/gnu/h-i686-mingw32/bin/../lib/gcc/nios2-elf/4.1.2/../../../../nios2-elf/lib/mno-hw-mul\libc.a(lib_a-reallocr.o)
 .debug_frame   0x000009e8       0x20 c:/altera/12.1/nios2eds/bin/gnu/h-i686-mingw32/bin/../lib/gcc/nios2-elf/4.1.2/../../../../nios2-elf/lib/mno-hw-mul\libc.a(lib_a-s_isinfd.o)
 .debug_frame   0x00000a08       0x20 c:/altera/12.1/nios2eds/bin/gnu/h-i686-mingw32/bin/../lib/gcc/nios2-elf/4.1.2/../../../../nios2-elf/lib/mno-hw-mul\libc.a(lib_a-s_isnand.o)
 .debug_frame   0x00000a28       0x2c c:/altera/12.1/nios2eds/bin/gnu/h-i686-mingw32/bin/../lib/gcc/nios2-elf/4.1.2/../../../../nios2-elf/lib/mno-hw-mul\libc.a(lib_a-sbrkr.o)
 .debug_frame   0x00000a54       0x78 c:/altera/12.1/nios2eds/bin/gnu/h-i686-mingw32/bin/../lib/gcc/nios2-elf/4.1.2/../../../../nios2-elf/lib/mno-hw-mul\libc.a(lib_a-stdio.o)
 .debug_frame   0x00000acc       0x20 c:/altera/12.1/nios2eds/bin/gnu/h-i686-mingw32/bin/../lib/gcc/nios2-elf/4.1.2/../../../../nios2-elf/lib/mno-hw-mul\libc.a(lib_a-strcmp.o)
 .debug_frame   0x00000aec       0x2c c:/altera/12.1/nios2eds/bin/gnu/h-i686-mingw32/bin/../lib/gcc/nios2-elf/4.1.2/../../../../nios2-elf/lib/mno-hw-mul\libc.a(lib_a-writer.o)
 .debug_frame   0x00000b18       0x2c c:/altera/12.1/nios2eds/bin/gnu/h-i686-mingw32/bin/../lib/gcc/nios2-elf/4.1.2/../../../../nios2-elf/lib/mno-hw-mul\libc.a(lib_a-callocr.o)
 .debug_frame   0x00000b44       0x2c c:/altera/12.1/nios2eds/bin/gnu/h-i686-mingw32/bin/../lib/gcc/nios2-elf/4.1.2/../../../../nios2-elf/lib/mno-hw-mul\libc.a(lib_a-closer.o)
 .debug_frame   0x00000b70       0x3c c:/altera/12.1/nios2eds/bin/gnu/h-i686-mingw32/bin/../lib/gcc/nios2-elf/4.1.2/../../../../nios2-elf/lib/mno-hw-mul\libc.a(lib_a-fclose.o)
 .debug_frame   0x00000bac       0x2c c:/altera/12.1/nios2eds/bin/gnu/h-i686-mingw32/bin/../lib/gcc/nios2-elf/4.1.2/../../../../nios2-elf/lib/mno-hw-mul\libc.a(lib_a-fstatr.o)
 .debug_frame   0x00000bd8       0x2c c:/altera/12.1/nios2eds/bin/gnu/h-i686-mingw32/bin/../lib/gcc/nios2-elf/4.1.2/../../../../nios2-elf/lib/mno-hw-mul\libc.a(lib_a-isattyr.o)
 .debug_frame   0x00000c04       0x2c c:/altera/12.1/nios2eds/bin/gnu/h-i686-mingw32/bin/../lib/gcc/nios2-elf/4.1.2/../../../../nios2-elf/lib/mno-hw-mul\libc.a(lib_a-lseekr.o)
 .debug_frame   0x00000c30       0x2c c:/altera/12.1/nios2eds/bin/gnu/h-i686-mingw32/bin/../lib/gcc/nios2-elf/4.1.2/../../../../nios2-elf/lib/mno-hw-mul\libc.a(lib_a-readr.o)
 .debug_frame   0x00000c5c       0x38 c:/altera/12.1/nios2eds/bin/gnu/h-i686-mingw32/bin/../lib/gcc/nios2-elf/4.1.2/mno-hw-mul\libgcc.a(_udivdi3.o)
 .debug_frame   0x00000c94       0x38 c:/altera/12.1/nios2eds/bin/gnu/h-i686-mingw32/bin/../lib/gcc/nios2-elf/4.1.2/mno-hw-mul\libgcc.a(_umoddi3.o)
 .debug_frame   0x00000ccc       0x70 c:/altera/12.1/nios2eds/bin/gnu/h-i686-mingw32/bin/../lib/gcc/nios2-elf/4.1.2/mno-hw-mul\libgcc.a(_addsub_df.o)
 .debug_frame   0x00000d3c       0x3c c:/altera/12.1/nios2eds/bin/gnu/h-i686-mingw32/bin/../lib/gcc/nios2-elf/4.1.2/mno-hw-mul\libgcc.a(_mul_df.o)
 .debug_frame   0x00000d78       0x30 c:/altera/12.1/nios2eds/bin/gnu/h-i686-mingw32/bin/../lib/gcc/nios2-elf/4.1.2/mno-hw-mul\libgcc.a(_div_df.o)
 .debug_frame   0x00000da8       0x2c c:/altera/12.1/nios2eds/bin/gnu/h-i686-mingw32/bin/../lib/gcc/nios2-elf/4.1.2/mno-hw-mul\libgcc.a(_eq_df.o)
 .debug_frame   0x00000dd4       0x2c c:/altera/12.1/nios2eds/bin/gnu/h-i686-mingw32/bin/../lib/gcc/nios2-elf/4.1.2/mno-hw-mul\libgcc.a(_ne_df.o)
 .debug_frame   0x00000e00       0x2c c:/altera/12.1/nios2eds/bin/gnu/h-i686-mingw32/bin/../lib/gcc/nios2-elf/4.1.2/mno-hw-mul\libgcc.a(_gt_df.o)
 .debug_frame   0x00000e2c       0x2c c:/altera/12.1/nios2eds/bin/gnu/h-i686-mingw32/bin/../lib/gcc/nios2-elf/4.1.2/mno-hw-mul\libgcc.a(_ge_df.o)
 .debug_frame   0x00000e58       0x2c c:/altera/12.1/nios2eds/bin/gnu/h-i686-mingw32/bin/../lib/gcc/nios2-elf/4.1.2/mno-hw-mul\libgcc.a(_lt_df.o)
 .debug_frame   0x00000e84       0x30 c:/altera/12.1/nios2eds/bin/gnu/h-i686-mingw32/bin/../lib/gcc/nios2-elf/4.1.2/mno-hw-mul\libgcc.a(_si_to_df.o)
 .debug_frame   0x00000eb4       0x28 c:/altera/12.1/nios2eds/bin/gnu/h-i686-mingw32/bin/../lib/gcc/nios2-elf/4.1.2/mno-hw-mul\libgcc.a(_df_to_si.o)
 .debug_frame   0x00000edc       0x38 c:/altera/12.1/nios2eds/bin/gnu/h-i686-mingw32/bin/../lib/gcc/nios2-elf/4.1.2/mno-hw-mul\libgcc.a(_usi_to_df.o)
 .debug_frame   0x00000f14       0x40 c:/altera/12.1/nios2eds/bin/gnu/h-i686-mingw32/bin/../lib/gcc/nios2-elf/4.1.2/mno-hw-mul\libgcc.a(_muldi3.o)
 .debug_frame   0x00000f54       0x20 c:/altera/12.1/nios2eds/bin/gnu/h-i686-mingw32/bin/../lib/gcc/nios2-elf/4.1.2/mno-hw-mul\libgcc.a(_clzsi2.o)
 .debug_frame   0x00000f74       0x2c c:/altera/12.1/nios2eds/bin/gnu/h-i686-mingw32/bin/../lib/gcc/nios2-elf/4.1.2/mno-hw-mul\libgcc.a(_pack_df.o)
 .debug_frame   0x00000fa0       0x20 c:/altera/12.1/nios2eds/bin/gnu/h-i686-mingw32/bin/../lib/gcc/nios2-elf/4.1.2/mno-hw-mul\libgcc.a(_unpack_df.o)
 .debug_frame   0x00000fc0       0x20 c:/altera/12.1/nios2eds/bin/gnu/h-i686-mingw32/bin/../lib/gcc/nios2-elf/4.1.2/mno-hw-mul\libgcc.a(_fpcmp_parts_df.o)
 .debug_frame   0x00000fe0       0x48 C:/work/fpga/nios2_camera_sdram_lcd/prj_eclipse/nios2_camera_sdram_lcd_bsp/\libhal_bsp.a(alt_close.o)
 .debug_frame   0x00001028       0x2c C:/work/fpga/nios2_camera_sdram_lcd/prj_eclipse/nios2_camera_sdram_lcd_bsp/\libhal_bsp.a(alt_dev.o)
 .debug_frame   0x00001054       0x48 C:/work/fpga/nios2_camera_sdram_lcd/prj_eclipse/nios2_camera_sdram_lcd_bsp/\libhal_bsp.a(alt_fstat.o)
 .debug_frame   0x0000109c       0x80 C:/work/fpga/nios2_camera_sdram_lcd/prj_eclipse/nios2_camera_sdram_lcd_bsp/\libhal_bsp.a(alt_iic.o)
 .debug_frame   0x0000111c       0x2c C:/work/fpga/nios2_camera_sdram_lcd/prj_eclipse/nios2_camera_sdram_lcd_bsp/\libhal_bsp.a(alt_iic_isr_register.o)
 .debug_frame   0x00001148       0x2c C:/work/fpga/nios2_camera_sdram_lcd/prj_eclipse/nios2_camera_sdram_lcd_bsp/\libhal_bsp.a(alt_irq_handler.o)
 .debug_frame   0x00001174       0x48 C:/work/fpga/nios2_camera_sdram_lcd/prj_eclipse/nios2_camera_sdram_lcd_bsp/\libhal_bsp.a(alt_isatty.o)
 .debug_frame   0x000011bc       0x48 C:/work/fpga/nios2_camera_sdram_lcd/prj_eclipse/nios2_camera_sdram_lcd_bsp/\libhal_bsp.a(alt_load.o)
 .debug_frame   0x00001204       0x48 C:/work/fpga/nios2_camera_sdram_lcd/prj_eclipse/nios2_camera_sdram_lcd_bsp/\libhal_bsp.a(alt_lseek.o)
 .debug_frame   0x0000124c       0x2c C:/work/fpga/nios2_camera_sdram_lcd/prj_eclipse/nios2_camera_sdram_lcd_bsp/\libhal_bsp.a(alt_main.o)
 .debug_frame   0x00001278       0x48 C:/work/fpga/nios2_camera_sdram_lcd/prj_eclipse/nios2_camera_sdram_lcd_bsp/\libhal_bsp.a(alt_malloc_lock.o)
 .debug_frame   0x000012c0       0x48 C:/work/fpga/nios2_camera_sdram_lcd/prj_eclipse/nios2_camera_sdram_lcd_bsp/\libhal_bsp.a(alt_read.o)
 .debug_frame   0x00001308       0x30 C:/work/fpga/nios2_camera_sdram_lcd/prj_eclipse/nios2_camera_sdram_lcd_bsp/\libhal_bsp.a(alt_release_fd.o)
 .debug_frame   0x00001338       0x2c C:/work/fpga/nios2_camera_sdram_lcd/prj_eclipse/nios2_camera_sdram_lcd_bsp/\libhal_bsp.a(alt_sbrk.o)
 .debug_frame   0x00001364       0x2c C:/work/fpga/nios2_camera_sdram_lcd/prj_eclipse/nios2_camera_sdram_lcd_bsp/\libhal_bsp.a(alt_usleep.o)
 .debug_frame   0x00001390       0x48 C:/work/fpga/nios2_camera_sdram_lcd/prj_eclipse/nios2_camera_sdram_lcd_bsp/\libhal_bsp.a(alt_write.o)
 .debug_frame   0x000013d8       0x64 C:/work/fpga/nios2_camera_sdram_lcd/prj_eclipse/nios2_camera_sdram_lcd_bsp/\libhal_bsp.a(alt_sys_init.o)
 .debug_frame   0x0000143c       0x80 C:/work/fpga/nios2_camera_sdram_lcd/prj_eclipse/nios2_camera_sdram_lcd_bsp/\libhal_bsp.a(altera_avalon_jtag_uart_fd.o)
 .debug_frame   0x000014bc       0x80 C:/work/fpga/nios2_camera_sdram_lcd/prj_eclipse/nios2_camera_sdram_lcd_bsp/\libhal_bsp.a(altera_avalon_jtag_uart_init.o)
 .debug_frame   0x0000153c       0x2c C:/work/fpga/nios2_camera_sdram_lcd/prj_eclipse/nios2_camera_sdram_lcd_bsp/\libhal_bsp.a(altera_avalon_jtag_uart_ioctl.o)
 .debug_frame   0x00001568       0x2c C:/work/fpga/nios2_camera_sdram_lcd/prj_eclipse/nios2_camera_sdram_lcd_bsp/\libhal_bsp.a(altera_avalon_jtag_uart_read.o)
 .debug_frame   0x00001594       0x2c C:/work/fpga/nios2_camera_sdram_lcd/prj_eclipse/nios2_camera_sdram_lcd_bsp/\libhal_bsp.a(altera_avalon_jtag_uart_write.o)
 .debug_frame   0x000015c0       0x2c C:/work/fpga/nios2_camera_sdram_lcd/prj_eclipse/nios2_camera_sdram_lcd_bsp/\libhal_bsp.a(alt_alarm_start.o)
 .debug_frame   0x000015ec       0x2c C:/work/fpga/nios2_camera_sdram_lcd/prj_eclipse/nios2_camera_sdram_lcd_bsp/\libhal_bsp.a(alt_busy_sleep.o)
 .debug_frame   0x00001618       0x2c C:/work/fpga/nios2_camera_sdram_lcd/prj_eclipse/nios2_camera_sdram_lcd_bsp/\libhal_bsp.a(alt_dcache_flush_all.o)
 .debug_frame   0x00001644       0x48 C:/work/fpga/nios2_camera_sdram_lcd/prj_eclipse/nios2_camera_sdram_lcd_bsp/\libhal_bsp.a(alt_dev_llist_insert.o)
 .debug_frame   0x0000168c       0x2c C:/work/fpga/nios2_camera_sdram_lcd/prj_eclipse/nios2_camera_sdram_lcd_bsp/\libhal_bsp.a(alt_do_ctors.o)
 .debug_frame   0x000016b8       0x2c C:/work/fpga/nios2_camera_sdram_lcd/prj_eclipse/nios2_camera_sdram_lcd_bsp/\libhal_bsp.a(alt_do_dtors.o)
 .debug_frame   0x000016e4       0x2c C:/work/fpga/nios2_camera_sdram_lcd/prj_eclipse/nios2_camera_sdram_lcd_bsp/\libhal_bsp.a(alt_icache_flush_all.o)
 .debug_frame   0x00001710       0x4c C:/work/fpga/nios2_camera_sdram_lcd/prj_eclipse/nios2_camera_sdram_lcd_bsp/\libhal_bsp.a(alt_io_redirect.o)
 .debug_frame   0x0000175c       0x68 C:/work/fpga/nios2_camera_sdram_lcd/prj_eclipse/nios2_camera_sdram_lcd_bsp/\libhal_bsp.a(alt_open.o)
 .debug_frame   0x000017c4       0x48 C:/work/fpga/nios2_camera_sdram_lcd/prj_eclipse/nios2_camera_sdram_lcd_bsp/\libhal_bsp.a(alt_tick.o)
 .debug_frame   0x0000180c       0x2c C:/work/fpga/nios2_camera_sdram_lcd/prj_eclipse/nios2_camera_sdram_lcd_bsp/\libhal_bsp.a(altera_nios2_qsys_irq.o)
 .debug_frame   0x00001838       0x2c C:/work/fpga/nios2_camera_sdram_lcd/prj_eclipse/nios2_camera_sdram_lcd_bsp/\libhal_bsp.a(alt_find_dev.o)
 .debug_frame   0x00001864       0x2c C:/work/fpga/nios2_camera_sdram_lcd/prj_eclipse/nios2_camera_sdram_lcd_bsp/\libhal_bsp.a(alt_find_file.o)
 .debug_frame   0x00001890       0x30 C:/work/fpga/nios2_camera_sdram_lcd/prj_eclipse/nios2_camera_sdram_lcd_bsp/\libhal_bsp.a(alt_get_fd.o)
 .debug_frame   0x000018c0       0x20 c:/altera/12.1/nios2eds/bin/gnu/h-i686-mingw32/bin/../lib/gcc/nios2-elf/4.1.2/../../../../nios2-elf/lib/mno-hw-mul\libc.a(lib_a-atexit.o)
 .debug_frame   0x000018e0       0x28 c:/altera/12.1/nios2eds/bin/gnu/h-i686-mingw32/bin/../lib/gcc/nios2-elf/4.1.2/../../../../nios2-elf/lib/mno-hw-mul\libc.a(lib_a-exit.o)
 .debug_frame   0x00001908       0x20 c:/altera/12.1/nios2eds/bin/gnu/h-i686-mingw32/bin/../lib/gcc/nios2-elf/4.1.2/../../../../nios2-elf/lib/mno-hw-mul\libc.a(lib_a-memcmp.o)
 .debug_frame   0x00001928       0x34 c:/altera/12.1/nios2eds/bin/gnu/h-i686-mingw32/bin/../lib/gcc/nios2-elf/4.1.2/../../../../nios2-elf/lib/mno-hw-mul\libc.a(lib_a-__atexit.o)
 .debug_frame   0x0000195c       0x4c c:/altera/12.1/nios2eds/bin/gnu/h-i686-mingw32/bin/../lib/gcc/nios2-elf/4.1.2/../../../../nios2-elf/lib/mno-hw-mul\libc.a(lib_a-__call_atexit.o)
 .debug_frame   0x000019a8       0x48 C:/work/fpga/nios2_camera_sdram_lcd/prj_eclipse/nios2_camera_sdram_lcd_bsp/\libhal_bsp.a(alt_exit.o)

.debug_str      0x00000000     0x225a
 *(.debug_str)
 .debug_str     0x00000000       0x12 obj/default/avalon_isp_algo_2a.o
 .debug_str     0x00000012       0x1e obj/default/hello_world.o
 .debug_str     0x00000030       0x12 obj/default/ov5640_drv.o
 .debug_str     0x00000042      0x164 c:/altera/12.1/nios2eds/bin/gnu/h-i686-mingw32/bin/../lib/gcc/nios2-elf/4.1.2/mno-hw-mul\libgcc.a(lib2-divmod.o)
                                0x1b1 (size before relaxing)
 .debug_str     0x000001a6       0x37 c:/altera/12.1/nios2eds/bin/gnu/h-i686-mingw32/bin/../lib/gcc/nios2-elf/4.1.2/mno-hw-mul\libgcc.a(lib2-mul.o)
                                0x172 (size before relaxing)
 .debug_str     0x000001dd      0x44a c:/altera/12.1/nios2eds/bin/gnu/h-i686-mingw32/bin/../lib/gcc/nios2-elf/4.1.2/../../../../nios2-elf/lib/mno-hw-mul\libc.a(lib_a-printf.o)
                                0x52e (size before relaxing)
 .debug_str     0x00000627       0x84 c:/altera/12.1/nios2eds/bin/gnu/h-i686-mingw32/bin/../lib/gcc/nios2-elf/4.1.2/../../../../nios2-elf/lib/mno-hw-mul\libc.a(lib_a-puts.o)
                                0x554 (size before relaxing)
 .debug_str     0x000006ab       0xe6 c:/altera/12.1/nios2eds/bin/gnu/h-i686-mingw32/bin/../lib/gcc/nios2-elf/4.1.2/../../../../nios2-elf/lib/mno-hw-mul\libc.a(lib_a-strlen.o)
                                0x188 (size before relaxing)
 .debug_str     0x00000791      0x188 c:/altera/12.1/nios2eds/bin/gnu/h-i686-mingw32/bin/../lib/gcc/nios2-elf/4.1.2/../../../../nios2-elf/lib/mno-hw-mul\libc.a(lib_a-vfprintf.o)
                                0x703 (size before relaxing)
 .debug_str     0x00000919       0x49 c:/altera/12.1/nios2eds/bin/gnu/h-i686-mingw32/bin/../lib/gcc/nios2-elf/4.1.2/../../../../nios2-elf/lib/mno-hw-mul\libc.a(lib_a-wsetup.o)
                                0x517 (size before relaxing)
 .debug_str     0x00000962      0x199 c:/altera/12.1/nios2eds/bin/gnu/h-i686-mingw32/bin/../lib/gcc/nios2-elf/4.1.2/../../../../nios2-elf/lib/mno-hw-mul\libc.a(lib_a-dtoa.o)
                                0x60c (size before relaxing)
 .debug_str     0x00000afb       0x68 c:/altera/12.1/nios2eds/bin/gnu/h-i686-mingw32/bin/../lib/gcc/nios2-elf/4.1.2/../../../../nios2-elf/lib/mno-hw-mul\libc.a(lib_a-fflush.o)
                                0x53d (size before relaxing)
 .debug_str     0x00000b63      0x105 c:/altera/12.1/nios2eds/bin/gnu/h-i686-mingw32/bin/../lib/gcc/nios2-elf/4.1.2/../../../../nios2-elf/lib/mno-hw-mul\libc.a(lib_a-findfp.o)
                                0x5ff (size before relaxing)
 .debug_str     0x00000c68      0x15e c:/altera/12.1/nios2eds/bin/gnu/h-i686-mingw32/bin/../lib/gcc/nios2-elf/4.1.2/../../../../nios2-elf/lib/mno-hw-mul\libc.a(lib_a-freer.o)
                                0x64e (size before relaxing)
 .debug_str     0x00000dc6       0x69 c:/altera/12.1/nios2eds/bin/gnu/h-i686-mingw32/bin/../lib/gcc/nios2-elf/4.1.2/../../../../nios2-elf/lib/mno-hw-mul\libc.a(lib_a-fvwrite.o)
                                0x56e (size before relaxing)
 .debug_str     0x00000e2f       0x61 c:/altera/12.1/nios2eds/bin/gnu/h-i686-mingw32/bin/../lib/gcc/nios2-elf/4.1.2/../../../../nios2-elf/lib/mno-hw-mul\libc.a(lib_a-fwalk.o)
                                0x540 (size before relaxing)
 .debug_str     0x00000e90       0xdc c:/altera/12.1/nios2eds/bin/gnu/h-i686-mingw32/bin/../lib/gcc/nios2-elf/4.1.2/../../../../nios2-elf/lib/mno-hw-mul\libc.a(lib_a-impure.o)
                                0x525 (size before relaxing)
 .debug_str     0x00000f6c      0x230 c:/altera/12.1/nios2eds/bin/gnu/h-i686-mingw32/bin/../lib/gcc/nios2-elf/4.1.2/../../../../nios2-elf/lib/mno-hw-mul\libc.a(lib_a-locale.o)
                                0x6b4 (size before relaxing)
 .debug_str     0x0000119c      0x126 c:/altera/12.1/nios2eds/bin/gnu/h-i686-mingw32/bin/../lib/gcc/nios2-elf/4.1.2/../../../../nios2-elf/lib/mno-hw-mul\libc.a(lib_a-makebuf.o)
                                0x611 (size before relaxing)
 .debug_str     0x000012c2       0xef c:/altera/12.1/nios2eds/bin/gnu/h-i686-mingw32/bin/../lib/gcc/nios2-elf/4.1.2/../../../../nios2-elf/lib/mno-hw-mul\libc.a(lib_a-mallocr.o)
                                0x6fc (size before relaxing)
 .debug_str     0x000013b1       0x5f c:/altera/12.1/nios2eds/bin/gnu/h-i686-mingw32/bin/../lib/gcc/nios2-elf/4.1.2/../../../../nios2-elf/lib/mno-hw-mul\libc.a(lib_a-memchr.o)
                                0x196 (size before relaxing)
 .debug_str     0x00001410       0x6c c:/altera/12.1/nios2eds/bin/gnu/h-i686-mingw32/bin/../lib/gcc/nios2-elf/4.1.2/../../../../nios2-elf/lib/mno-hw-mul\libc.a(lib_a-memcpy.o)
                                0x133 (size before relaxing)
 .debug_str     0x0000147c       0x50 c:/altera/12.1/nios2eds/bin/gnu/h-i686-mingw32/bin/../lib/gcc/nios2-elf/4.1.2/../../../../nios2-elf/lib/mno-hw-mul\libc.a(lib_a-memmove.o)
                                0x1a8 (size before relaxing)
 .debug_str     0x000014cc       0x45 c:/altera/12.1/nios2eds/bin/gnu/h-i686-mingw32/bin/../lib/gcc/nios2-elf/4.1.2/../../../../nios2-elf/lib/mno-hw-mul\libc.a(lib_a-memset.o)
                                0x189 (size before relaxing)
 .debug_str     0x00001511       0xfb c:/altera/12.1/nios2eds/bin/gnu/h-i686-mingw32/bin/../lib/gcc/nios2-elf/4.1.2/../../../../nios2-elf/lib/mno-hw-mul\libc.a(lib_a-mprec.o)
                                0x619 (size before relaxing)
 .debug_str     0x0000160c       0x59 c:/altera/12.1/nios2eds/bin/gnu/h-i686-mingw32/bin/../lib/gcc/nios2-elf/4.1.2/../../../../nios2-elf/lib/mno-hw-mul\libc.a(lib_a-reallocr.o)
                                0x5ce (size before relaxing)
 .debug_str     0x00001665       0xe7 c:/altera/12.1/nios2eds/bin/gnu/h-i686-mingw32/bin/../lib/gcc/nios2-elf/4.1.2/../../../../nios2-elf/lib/mno-hw-mul\libc.a(lib_a-s_isinfd.o)
                                0x195 (size before relaxing)
 .debug_str     0x0000174c       0x49 c:/altera/12.1/nios2eds/bin/gnu/h-i686-mingw32/bin/../lib/gcc/nios2-elf/4.1.2/../../../../nios2-elf/lib/mno-hw-mul\libc.a(lib_a-s_isnand.o)
                                0x195 (size before relaxing)
 .debug_str     0x00001795       0x53 c:/altera/12.1/nios2eds/bin/gnu/h-i686-mingw32/bin/../lib/gcc/nios2-elf/4.1.2/../../../../nios2-elf/lib/mno-hw-mul\libc.a(lib_a-sbrkr.o)
                                0x516 (size before relaxing)
 .debug_str     0x000017e8       0x65 c:/altera/12.1/nios2eds/bin/gnu/h-i686-mingw32/bin/../lib/gcc/nios2-elf/4.1.2/../../../../nios2-elf/lib/mno-hw-mul\libc.a(lib_a-stdio.o)
                                0x53c (size before relaxing)
 .debug_str     0x0000184d       0x45 c:/altera/12.1/nios2eds/bin/gnu/h-i686-mingw32/bin/../lib/gcc/nios2-elf/4.1.2/../../../../nios2-elf/lib/mno-hw-mul\libc.a(lib_a-strcmp.o)
                                0x16e (size before relaxing)
 .debug_str     0x00001892       0x4f c:/altera/12.1/nios2eds/bin/gnu/h-i686-mingw32/bin/../lib/gcc/nios2-elf/4.1.2/../../../../nios2-elf/lib/mno-hw-mul\libc.a(lib_a-writer.o)
                                0x519 (size before relaxing)
 .debug_str     0x000018e1       0x19 c:/altera/12.1/nios2eds/bin/gnu/h-i686-mingw32/bin/../lib/gcc/nios2-elf/4.1.2/../../../../nios2-elf/lib/mno-hw-mul\libc.a(lib_a-callocr.o)
                                0x54d (size before relaxing)
 .debug_str     0x000018fa       0x46 c:/altera/12.1/nios2eds/bin/gnu/h-i686-mingw32/bin/../lib/gcc/nios2-elf/4.1.2/../../../../nios2-elf/lib/mno-hw-mul\libc.a(lib_a-closer.o)
                                0x509 (size before relaxing)
 .debug_str     0x00001940       0x4e c:/altera/12.1/nios2eds/bin/gnu/h-i686-mingw32/bin/../lib/gcc/nios2-elf/4.1.2/../../../../nios2-elf/lib/mno-hw-mul\libc.a(lib_a-fclose.o)
                                0x521 (size before relaxing)
 .debug_str     0x0000198e       0x4c c:/altera/12.1/nios2eds/bin/gnu/h-i686-mingw32/bin/../lib/gcc/nios2-elf/4.1.2/../../../../nios2-elf/lib/mno-hw-mul\libc.a(lib_a-fstatr.o)
                                0x5fc (size before relaxing)
 .debug_str     0x000019da       0x40 c:/altera/12.1/nios2eds/bin/gnu/h-i686-mingw32/bin/../lib/gcc/nios2-elf/4.1.2/../../../../nios2-elf/lib/mno-hw-mul\libc.a(lib_a-int_errno.o)
                                0x16e (size before relaxing)
 .debug_str     0x00001a1a       0x48 c:/altera/12.1/nios2eds/bin/gnu/h-i686-mingw32/bin/../lib/gcc/nios2-elf/4.1.2/../../../../nios2-elf/lib/mno-hw-mul\libc.a(lib_a-isattyr.o)
                                0x50b (size before relaxing)
 .debug_str     0x00001a62       0x46 c:/altera/12.1/nios2eds/bin/gnu/h-i686-mingw32/bin/../lib/gcc/nios2-elf/4.1.2/../../../../nios2-elf/lib/mno-hw-mul\libc.a(lib_a-lseekr.o)
                                0x517 (size before relaxing)
 .debug_str     0x00001aa8       0x44 c:/altera/12.1/nios2eds/bin/gnu/h-i686-mingw32/bin/../lib/gcc/nios2-elf/4.1.2/../../../../nios2-elf/lib/mno-hw-mul\libc.a(lib_a-readr.o)
                                0x517 (size before relaxing)
 .debug_str     0x00001aec       0xb2 c:/altera/12.1/nios2eds/bin/gnu/h-i686-mingw32/bin/../lib/gcc/nios2-elf/4.1.2/mno-hw-mul\libgcc.a(_udivdi3.o)
                                0x1f4 (size before relaxing)
 .debug_str     0x00001b9e        0xa c:/altera/12.1/nios2eds/bin/gnu/h-i686-mingw32/bin/../lib/gcc/nios2-elf/4.1.2/mno-hw-mul\libgcc.a(_umoddi3.o)
                                0x1f4 (size before relaxing)
 .debug_str     0x00001ba8      0x137 c:/altera/12.1/nios2eds/bin/gnu/h-i686-mingw32/bin/../lib/gcc/nios2-elf/4.1.2/mno-hw-mul\libgcc.a(_addsub_df.o)
                                0x26c (size before relaxing)
 .debug_str     0x00001cdf       0x40 c:/altera/12.1/nios2eds/bin/gnu/h-i686-mingw32/bin/../lib/gcc/nios2-elf/4.1.2/mno-hw-mul\libgcc.a(_mul_df.o)
                                0x23e (size before relaxing)
 .debug_str     0x00001d1f       0x35 c:/altera/12.1/nios2eds/bin/gnu/h-i686-mingw32/bin/../lib/gcc/nios2-elf/4.1.2/mno-hw-mul\libgcc.a(_div_df.o)
                                0x22e (size before relaxing)
 .debug_str     0x00001d54        0x8 c:/altera/12.1/nios2eds/bin/gnu/h-i686-mingw32/bin/../lib/gcc/nios2-elf/4.1.2/mno-hw-mul\libgcc.a(_eq_df.o)
                                0x1fb (size before relaxing)
 .debug_str     0x00001d5c        0x8 c:/altera/12.1/nios2eds/bin/gnu/h-i686-mingw32/bin/../lib/gcc/nios2-elf/4.1.2/mno-hw-mul\libgcc.a(_ne_df.o)
                                0x1fb (size before relaxing)
 .debug_str     0x00001d64        0x8 c:/altera/12.1/nios2eds/bin/gnu/h-i686-mingw32/bin/../lib/gcc/nios2-elf/4.1.2/mno-hw-mul\libgcc.a(_gt_df.o)
                                0x1fb (size before relaxing)
 .debug_str     0x00001d6c        0x8 c:/altera/12.1/nios2eds/bin/gnu/h-i686-mingw32/bin/../lib/gcc/nios2-elf/4.1.2/mno-hw-mul\libgcc.a(_ge_df.o)
                                0x1fb (size before relaxing)
 .debug_str     0x00001d74        0x8 c:/altera/12.1/nios2eds/bin/gnu/h-i686-mingw32/bin/../lib/gcc/nios2-elf/4.1.2/mno-hw-mul\libgcc.a(_lt_df.o)
                                0x1fb (size before relaxing)
 .debug_str     0x00001d7c       0x18 c:/altera/12.1/nios2eds/bin/gnu/h-i686-mingw32/bin/../lib/gcc/nios2-elf/4.1.2/mno-hw-mul\libgcc.a(_si_to_df.o)
                                0x1db (size before relaxing)
 .debug_str     0x00001d94        0xa c:/altera/12.1/nios2eds/bin/gnu/h-i686-mingw32/bin/../lib/gcc/nios2-elf/4.1.2/mno-hw-mul\libgcc.a(_df_to_si.o)
                                0x204 (size before relaxing)
 .debug_str     0x00000000      0x1a0 c:/altera/12.1/nios2eds/bin/gnu/h-i686-mingw32/bin/../lib/gcc/nios2-elf/4.1.2/mno-hw-mul\libgcc.a(_thenan_df.o)
 .debug_str     0x00001d9e       0x14 c:/altera/12.1/nios2eds/bin/gnu/h-i686-mingw32/bin/../lib/gcc/nios2-elf/4.1.2/mno-hw-mul\libgcc.a(_usi_to_df.o)
                                0x1d7 (size before relaxing)
 .debug_str     0x00001db2        0x9 c:/altera/12.1/nios2eds/bin/gnu/h-i686-mingw32/bin/../lib/gcc/nios2-elf/4.1.2/mno-hw-mul\libgcc.a(_muldi3.o)
                                0x1a9 (size before relaxing)
 .debug_str     0x00000000      0x15e c:/altera/12.1/nios2eds/bin/gnu/h-i686-mingw32/bin/../lib/gcc/nios2-elf/4.1.2/mno-hw-mul\libgcc.a(_clz.o)
 .debug_str     0x00001dbb        0x9 c:/altera/12.1/nios2eds/bin/gnu/h-i686-mingw32/bin/../lib/gcc/nios2-elf/4.1.2/mno-hw-mul\libgcc.a(_clzsi2.o)
                                0x17b (size before relaxing)
 .debug_str     0x00001dc4       0x10 c:/altera/12.1/nios2eds/bin/gnu/h-i686-mingw32/bin/../lib/gcc/nios2-elf/4.1.2/mno-hw-mul\libgcc.a(_pack_df.o)
                                0x203 (size before relaxing)
 .debug_str     0x00001dd4        0xb c:/altera/12.1/nios2eds/bin/gnu/h-i686-mingw32/bin/../lib/gcc/nios2-elf/4.1.2/mno-hw-mul\libgcc.a(_unpack_df.o)
                                0x1e5 (size before relaxing)
 .debug_str     0x00001ddf       0x10 c:/altera/12.1/nios2eds/bin/gnu/h-i686-mingw32/bin/../lib/gcc/nios2-elf/4.1.2/mno-hw-mul\libgcc.a(_fpcmp_parts_df.o)
                                0x1c3 (size before relaxing)
 .debug_str     0x00001def       0x12 C:/work/fpga/nios2_camera_sdram_lcd/prj_eclipse/nios2_camera_sdram_lcd_bsp/\libhal_bsp.a(alt_close.o)
 .debug_str     0x00001e01       0x12 C:/work/fpga/nios2_camera_sdram_lcd/prj_eclipse/nios2_camera_sdram_lcd_bsp/\libhal_bsp.a(alt_dev.o)
 .debug_str     0x00001e13       0x12 C:/work/fpga/nios2_camera_sdram_lcd/prj_eclipse/nios2_camera_sdram_lcd_bsp/\libhal_bsp.a(alt_errno.o)
 .debug_str     0x00001e25       0x12 C:/work/fpga/nios2_camera_sdram_lcd/prj_eclipse/nios2_camera_sdram_lcd_bsp/\libhal_bsp.a(alt_fstat.o)
 .debug_str     0x00001e37       0x18 C:/work/fpga/nios2_camera_sdram_lcd/prj_eclipse/nios2_camera_sdram_lcd_bsp/\libhal_bsp.a(alt_iic.o)
 .debug_str     0x00001e4f       0x1a C:/work/fpga/nios2_camera_sdram_lcd/prj_eclipse/nios2_camera_sdram_lcd_bsp/\libhal_bsp.a(alt_iic_isr_register.o)
 .debug_str     0x00001e69       0x12 C:/work/fpga/nios2_camera_sdram_lcd/prj_eclipse/nios2_camera_sdram_lcd_bsp/\libhal_bsp.a(alt_irq_handler.o)
 .debug_str     0x00001e7b       0x12 C:/work/fpga/nios2_camera_sdram_lcd/prj_eclipse/nios2_camera_sdram_lcd_bsp/\libhal_bsp.a(alt_isatty.o)
 .debug_str     0x00001e8d       0x12 C:/work/fpga/nios2_camera_sdram_lcd/prj_eclipse/nios2_camera_sdram_lcd_bsp/\libhal_bsp.a(alt_load.o)
 .debug_str     0x00001e9f       0x12 C:/work/fpga/nios2_camera_sdram_lcd/prj_eclipse/nios2_camera_sdram_lcd_bsp/\libhal_bsp.a(alt_lseek.o)
 .debug_str     0x00001eb1       0x12 C:/work/fpga/nios2_camera_sdram_lcd/prj_eclipse/nios2_camera_sdram_lcd_bsp/\libhal_bsp.a(alt_main.o)
 .debug_str     0x00001ec3       0x20 C:/work/fpga/nios2_camera_sdram_lcd/prj_eclipse/nios2_camera_sdram_lcd_bsp/\libhal_bsp.a(alt_malloc_lock.o)
 .debug_str     0x00001ee3       0x12 C:/work/fpga/nios2_camera_sdram_lcd/prj_eclipse/nios2_camera_sdram_lcd_bsp/\libhal_bsp.a(alt_read.o)
 .debug_str     0x00001ef5       0x1a C:/work/fpga/nios2_camera_sdram_lcd/prj_eclipse/nios2_camera_sdram_lcd_bsp/\libhal_bsp.a(alt_sbrk.o)
 .debug_str     0x00001f0f       0x12 C:/work/fpga/nios2_camera_sdram_lcd/prj_eclipse/nios2_camera_sdram_lcd_bsp/\libhal_bsp.a(alt_usleep.o)
 .debug_str     0x00001f21       0x12 C:/work/fpga/nios2_camera_sdram_lcd/prj_eclipse/nios2_camera_sdram_lcd_bsp/\libhal_bsp.a(alt_write.o)
 .debug_str     0x00001f33       0x12 C:/work/fpga/nios2_camera_sdram_lcd/prj_eclipse/nios2_camera_sdram_lcd_bsp/\libhal_bsp.a(alt_sys_init.o)
 .debug_str     0x00001f45       0x12 C:/work/fpga/nios2_camera_sdram_lcd/prj_eclipse/nios2_camera_sdram_lcd_bsp/\libhal_bsp.a(altera_avalon_jtag_uart_fd.o)
 .debug_str     0x00001f57       0x1a C:/work/fpga/nios2_camera_sdram_lcd/prj_eclipse/nios2_camera_sdram_lcd_bsp/\libhal_bsp.a(altera_avalon_jtag_uart_init.o)
 .debug_str     0x00001f71       0x12 C:/work/fpga/nios2_camera_sdram_lcd/prj_eclipse/nios2_camera_sdram_lcd_bsp/\libhal_bsp.a(altera_avalon_jtag_uart_ioctl.o)
 .debug_str     0x00001f83       0x1a C:/work/fpga/nios2_camera_sdram_lcd/prj_eclipse/nios2_camera_sdram_lcd_bsp/\libhal_bsp.a(altera_avalon_jtag_uart_read.o)
 .debug_str     0x00001f9d       0x1a C:/work/fpga/nios2_camera_sdram_lcd/prj_eclipse/nios2_camera_sdram_lcd_bsp/\libhal_bsp.a(altera_avalon_jtag_uart_write.o)
 .debug_str     0x00001fb7       0x23 C:/work/fpga/nios2_camera_sdram_lcd/prj_eclipse/nios2_camera_sdram_lcd_bsp/\libhal_bsp.a(alt_alarm_start.o)
 .debug_str     0x00001fda       0x12 C:/work/fpga/nios2_camera_sdram_lcd/prj_eclipse/nios2_camera_sdram_lcd_bsp/\libhal_bsp.a(alt_busy_sleep.o)
 .debug_str     0x00001fec       0x12 C:/work/fpga/nios2_camera_sdram_lcd/prj_eclipse/nios2_camera_sdram_lcd_bsp/\libhal_bsp.a(alt_dcache_flush_all.o)
 .debug_str     0x00001ffe       0x12 C:/work/fpga/nios2_camera_sdram_lcd/prj_eclipse/nios2_camera_sdram_lcd_bsp/\libhal_bsp.a(alt_dev_llist_insert.o)
 .debug_str     0x00002010       0x12 C:/work/fpga/nios2_camera_sdram_lcd/prj_eclipse/nios2_camera_sdram_lcd_bsp/\libhal_bsp.a(alt_icache_flush_all.o)
 .debug_str     0x00002022       0x12 C:/work/fpga/nios2_camera_sdram_lcd/prj_eclipse/nios2_camera_sdram_lcd_bsp/\libhal_bsp.a(alt_io_redirect.o)
 .debug_str     0x00002034       0x12 C:/work/fpga/nios2_camera_sdram_lcd/prj_eclipse/nios2_camera_sdram_lcd_bsp/\libhal_bsp.a(alt_open.o)
 .debug_str     0x00002046       0x1a C:/work/fpga/nios2_camera_sdram_lcd/prj_eclipse/nios2_camera_sdram_lcd_bsp/\libhal_bsp.a(alt_tick.o)
 .debug_str     0x00002060       0x12 C:/work/fpga/nios2_camera_sdram_lcd/prj_eclipse/nios2_camera_sdram_lcd_bsp/\libhal_bsp.a(altera_nios2_qsys_irq.o)
 .debug_str     0x00002072       0x12 C:/work/fpga/nios2_camera_sdram_lcd/prj_eclipse/nios2_camera_sdram_lcd_bsp/\libhal_bsp.a(alt_find_dev.o)
 .debug_str     0x00002084       0x12 C:/work/fpga/nios2_camera_sdram_lcd/prj_eclipse/nios2_camera_sdram_lcd_bsp/\libhal_bsp.a(alt_find_file.o)
 .debug_str     0x00002096       0x12 C:/work/fpga/nios2_camera_sdram_lcd/prj_eclipse/nios2_camera_sdram_lcd_bsp/\libhal_bsp.a(alt_get_fd.o)
 .debug_str     0x000020a8       0x3e c:/altera/12.1/nios2eds/bin/gnu/h-i686-mingw32/bin/../lib/gcc/nios2-elf/4.1.2/../../../../nios2-elf/lib/mno-hw-mul\libc.a(lib_a-atexit.o)
                                0x1ca (size before relaxing)
 .debug_str     0x000020e6       0x41 c:/altera/12.1/nios2eds/bin/gnu/h-i686-mingw32/bin/../lib/gcc/nios2-elf/4.1.2/../../../../nios2-elf/lib/mno-hw-mul\libc.a(lib_a-exit.o)
                                0x517 (size before relaxing)
 .debug_str     0x00002127       0x45 c:/altera/12.1/nios2eds/bin/gnu/h-i686-mingw32/bin/../lib/gcc/nios2-elf/4.1.2/../../../../nios2-elf/lib/mno-hw-mul\libc.a(lib_a-memcmp.o)
                                0x175 (size before relaxing)
 .debug_str     0x0000216c       0x54 c:/altera/12.1/nios2eds/bin/gnu/h-i686-mingw32/bin/../lib/gcc/nios2-elf/4.1.2/../../../../nios2-elf/lib/mno-hw-mul\libc.a(lib_a-__atexit.o)
                                0x52f (size before relaxing)
 .debug_str     0x000021c0       0x7e c:/altera/12.1/nios2eds/bin/gnu/h-i686-mingw32/bin/../lib/gcc/nios2-elf/4.1.2/../../../../nios2-elf/lib/mno-hw-mul\libc.a(lib_a-__call_atexit.o)
                                0x559 (size before relaxing)
 .debug_str     0x0000223e       0x1c C:/work/fpga/nios2_camera_sdram_lcd/prj_eclipse/nios2_camera_sdram_lcd_bsp/\libhal_bsp.a(alt_exit.o)

.debug_loc      0x00000000     0xbfcb
 *(.debug_loc)
 .debug_loc     0x00000000       0x56 obj/default/avalon_isp_algo_2a.o
 .debug_loc     0x00000056       0xd7 obj/default/hello_world.o
 .debug_loc     0x0000012d      0x158 obj/default/ov5640_drv.o
 .debug_loc     0x00000285      0x1d2 c:/altera/12.1/nios2eds/bin/gnu/h-i686-mingw32/bin/../lib/gcc/nios2-elf/4.1.2/mno-hw-mul\libgcc.a(lib2-divmod.o)
 .debug_loc     0x00000457       0x4f c:/altera/12.1/nios2eds/bin/gnu/h-i686-mingw32/bin/../lib/gcc/nios2-elf/4.1.2/mno-hw-mul\libgcc.a(lib2-mul.o)
 .debug_loc     0x000004a6       0xcb c:/altera/12.1/nios2eds/bin/gnu/h-i686-mingw32/bin/../lib/gcc/nios2-elf/4.1.2/../../../../nios2-elf/lib/mno-hw-mul\libc.a(lib_a-printf.o)
 .debug_loc     0x00000571       0xa2 c:/altera/12.1/nios2eds/bin/gnu/h-i686-mingw32/bin/../lib/gcc/nios2-elf/4.1.2/../../../../nios2-elf/lib/mno-hw-mul\libc.a(lib_a-puts.o)
 .debug_loc     0x00000613       0x3c c:/altera/12.1/nios2eds/bin/gnu/h-i686-mingw32/bin/../lib/gcc/nios2-elf/4.1.2/../../../../nios2-elf/lib/mno-hw-mul\libc.a(lib_a-strlen.o)
 .debug_loc     0x0000064f     0x1dc0 c:/altera/12.1/nios2eds/bin/gnu/h-i686-mingw32/bin/../lib/gcc/nios2-elf/4.1.2/../../../../nios2-elf/lib/mno-hw-mul\libc.a(lib_a-vfprintf.o)
 .debug_loc     0x0000240f       0x7c c:/altera/12.1/nios2eds/bin/gnu/h-i686-mingw32/bin/../lib/gcc/nios2-elf/4.1.2/../../../../nios2-elf/lib/mno-hw-mul\libc.a(lib_a-wsetup.o)
 .debug_loc     0x0000248b     0x1da7 c:/altera/12.1/nios2eds/bin/gnu/h-i686-mingw32/bin/../lib/gcc/nios2-elf/4.1.2/../../../../nios2-elf/lib/mno-hw-mul\libc.a(lib_a-dtoa.o)
 .debug_loc     0x00004232      0x1f6 c:/altera/12.1/nios2eds/bin/gnu/h-i686-mingw32/bin/../lib/gcc/nios2-elf/4.1.2/../../../../nios2-elf/lib/mno-hw-mul\libc.a(lib_a-fflush.o)
 .debug_loc     0x00004428      0x1e1 c:/altera/12.1/nios2eds/bin/gnu/h-i686-mingw32/bin/../lib/gcc/nios2-elf/4.1.2/../../../../nios2-elf/lib/mno-hw-mul\libc.a(lib_a-findfp.o)
 .debug_loc     0x00004609      0x4a7 c:/altera/12.1/nios2eds/bin/gnu/h-i686-mingw32/bin/../lib/gcc/nios2-elf/4.1.2/../../../../nios2-elf/lib/mno-hw-mul\libc.a(lib_a-freer.o)
 .debug_loc     0x00004ab0      0x4e4 c:/altera/12.1/nios2eds/bin/gnu/h-i686-mingw32/bin/../lib/gcc/nios2-elf/4.1.2/../../../../nios2-elf/lib/mno-hw-mul\libc.a(lib_a-fvwrite.o)
 .debug_loc     0x00004f94      0x1d2 c:/altera/12.1/nios2eds/bin/gnu/h-i686-mingw32/bin/../lib/gcc/nios2-elf/4.1.2/../../../../nios2-elf/lib/mno-hw-mul\libc.a(lib_a-fwalk.o)
 .debug_loc     0x00005166       0xe1 c:/altera/12.1/nios2eds/bin/gnu/h-i686-mingw32/bin/../lib/gcc/nios2-elf/4.1.2/../../../../nios2-elf/lib/mno-hw-mul\libc.a(lib_a-locale.o)
 .debug_loc     0x00005247      0x11c c:/altera/12.1/nios2eds/bin/gnu/h-i686-mingw32/bin/../lib/gcc/nios2-elf/4.1.2/../../../../nios2-elf/lib/mno-hw-mul\libc.a(lib_a-makebuf.o)
 .debug_loc     0x00005363      0xaeb c:/altera/12.1/nios2eds/bin/gnu/h-i686-mingw32/bin/../lib/gcc/nios2-elf/4.1.2/../../../../nios2-elf/lib/mno-hw-mul\libc.a(lib_a-mallocr.o)
 .debug_loc     0x00005e4e      0x106 c:/altera/12.1/nios2eds/bin/gnu/h-i686-mingw32/bin/../lib/gcc/nios2-elf/4.1.2/../../../../nios2-elf/lib/mno-hw-mul\libc.a(lib_a-memchr.o)
 .debug_loc     0x00005f54       0xca c:/altera/12.1/nios2eds/bin/gnu/h-i686-mingw32/bin/../lib/gcc/nios2-elf/4.1.2/../../../../nios2-elf/lib/mno-hw-mul\libc.a(lib_a-memcpy.o)
 .debug_loc     0x0000601e      0x117 c:/altera/12.1/nios2eds/bin/gnu/h-i686-mingw32/bin/../lib/gcc/nios2-elf/4.1.2/../../../../nios2-elf/lib/mno-hw-mul\libc.a(lib_a-memmove.o)
 .debug_loc     0x00006135       0xa1 c:/altera/12.1/nios2eds/bin/gnu/h-i686-mingw32/bin/../lib/gcc/nios2-elf/4.1.2/../../../../nios2-elf/lib/mno-hw-mul\libc.a(lib_a-memset.o)
 .debug_loc     0x000061d6     0x1547 c:/altera/12.1/nios2eds/bin/gnu/h-i686-mingw32/bin/../lib/gcc/nios2-elf/4.1.2/../../../../nios2-elf/lib/mno-hw-mul\libc.a(lib_a-mprec.o)
 .debug_loc     0x0000771d      0x8c0 c:/altera/12.1/nios2eds/bin/gnu/h-i686-mingw32/bin/../lib/gcc/nios2-elf/4.1.2/../../../../nios2-elf/lib/mno-hw-mul\libc.a(lib_a-reallocr.o)
 .debug_loc     0x00007fdd       0x36 c:/altera/12.1/nios2eds/bin/gnu/h-i686-mingw32/bin/../lib/gcc/nios2-elf/4.1.2/../../../../nios2-elf/lib/mno-hw-mul\libc.a(lib_a-s_isinfd.o)
 .debug_loc     0x00008013       0x18 c:/altera/12.1/nios2eds/bin/gnu/h-i686-mingw32/bin/../lib/gcc/nios2-elf/4.1.2/../../../../nios2-elf/lib/mno-hw-mul\libc.a(lib_a-s_isnand.o)
 .debug_loc     0x0000802b       0x5b c:/altera/12.1/nios2eds/bin/gnu/h-i686-mingw32/bin/../lib/gcc/nios2-elf/4.1.2/../../../../nios2-elf/lib/mno-hw-mul\libc.a(lib_a-sbrkr.o)
 .debug_loc     0x00008086      0x21f c:/altera/12.1/nios2eds/bin/gnu/h-i686-mingw32/bin/../lib/gcc/nios2-elf/4.1.2/../../../../nios2-elf/lib/mno-hw-mul\libc.a(lib_a-stdio.o)
 .debug_loc     0x000082a5       0x65 c:/altera/12.1/nios2eds/bin/gnu/h-i686-mingw32/bin/../lib/gcc/nios2-elf/4.1.2/../../../../nios2-elf/lib/mno-hw-mul\libc.a(lib_a-strcmp.o)
 .debug_loc     0x0000830a       0x97 c:/altera/12.1/nios2eds/bin/gnu/h-i686-mingw32/bin/../lib/gcc/nios2-elf/4.1.2/../../../../nios2-elf/lib/mno-hw-mul\libc.a(lib_a-writer.o)
 .debug_loc     0x000083a1       0xff c:/altera/12.1/nios2eds/bin/gnu/h-i686-mingw32/bin/../lib/gcc/nios2-elf/4.1.2/../../../../nios2-elf/lib/mno-hw-mul\libc.a(lib_a-callocr.o)
 .debug_loc     0x000084a0       0x5b c:/altera/12.1/nios2eds/bin/gnu/h-i686-mingw32/bin/../lib/gcc/nios2-elf/4.1.2/../../../../nios2-elf/lib/mno-hw-mul\libc.a(lib_a-closer.o)
 .debug_loc     0x000084fb       0xe4 c:/altera/12.1/nios2eds/bin/gnu/h-i686-mingw32/bin/../lib/gcc/nios2-elf/4.1.2/../../../../nios2-elf/lib/mno-hw-mul\libc.a(lib_a-fclose.o)
 .debug_loc     0x000085df       0x79 c:/altera/12.1/nios2eds/bin/gnu/h-i686-mingw32/bin/../lib/gcc/nios2-elf/4.1.2/../../../../nios2-elf/lib/mno-hw-mul\libc.a(lib_a-fstatr.o)
 .debug_loc     0x00008658       0x5b c:/altera/12.1/nios2eds/bin/gnu/h-i686-mingw32/bin/../lib/gcc/nios2-elf/4.1.2/../../../../nios2-elf/lib/mno-hw-mul\libc.a(lib_a-isattyr.o)
 .debug_loc     0x000086b3       0x97 c:/altera/12.1/nios2eds/bin/gnu/h-i686-mingw32/bin/../lib/gcc/nios2-elf/4.1.2/../../../../nios2-elf/lib/mno-hw-mul\libc.a(lib_a-lseekr.o)
 .debug_loc     0x0000874a       0x97 c:/altera/12.1/nios2eds/bin/gnu/h-i686-mingw32/bin/../lib/gcc/nios2-elf/4.1.2/../../../../nios2-elf/lib/mno-hw-mul\libc.a(lib_a-readr.o)
 .debug_loc     0x000087e1      0xc12 c:/altera/12.1/nios2eds/bin/gnu/h-i686-mingw32/bin/../lib/gcc/nios2-elf/4.1.2/mno-hw-mul\libgcc.a(_udivdi3.o)
 .debug_loc     0x000093f3      0xbcc c:/altera/12.1/nios2eds/bin/gnu/h-i686-mingw32/bin/../lib/gcc/nios2-elf/4.1.2/mno-hw-mul\libgcc.a(_umoddi3.o)
 .debug_loc     0x00009fbf      0x47a c:/altera/12.1/nios2eds/bin/gnu/h-i686-mingw32/bin/../lib/gcc/nios2-elf/4.1.2/mno-hw-mul\libgcc.a(_addsub_df.o)
 .debug_loc     0x0000a439      0x3b4 c:/altera/12.1/nios2eds/bin/gnu/h-i686-mingw32/bin/../lib/gcc/nios2-elf/4.1.2/mno-hw-mul\libgcc.a(_mul_df.o)
 .debug_loc     0x0000a7ed      0x1df c:/altera/12.1/nios2eds/bin/gnu/h-i686-mingw32/bin/../lib/gcc/nios2-elf/4.1.2/mno-hw-mul\libgcc.a(_div_df.o)
 .debug_loc     0x0000a9cc       0x70 c:/altera/12.1/nios2eds/bin/gnu/h-i686-mingw32/bin/../lib/gcc/nios2-elf/4.1.2/mno-hw-mul\libgcc.a(_eq_df.o)
 .debug_loc     0x0000aa3c       0x70 c:/altera/12.1/nios2eds/bin/gnu/h-i686-mingw32/bin/../lib/gcc/nios2-elf/4.1.2/mno-hw-mul\libgcc.a(_ne_df.o)
 .debug_loc     0x0000aaac       0x70 c:/altera/12.1/nios2eds/bin/gnu/h-i686-mingw32/bin/../lib/gcc/nios2-elf/4.1.2/mno-hw-mul\libgcc.a(_gt_df.o)
 .debug_loc     0x0000ab1c       0x70 c:/altera/12.1/nios2eds/bin/gnu/h-i686-mingw32/bin/../lib/gcc/nios2-elf/4.1.2/mno-hw-mul\libgcc.a(_ge_df.o)
 .debug_loc     0x0000ab8c       0x70 c:/altera/12.1/nios2eds/bin/gnu/h-i686-mingw32/bin/../lib/gcc/nios2-elf/4.1.2/mno-hw-mul\libgcc.a(_lt_df.o)
 .debug_loc     0x0000abfc       0x9a c:/altera/12.1/nios2eds/bin/gnu/h-i686-mingw32/bin/../lib/gcc/nios2-elf/4.1.2/mno-hw-mul\libgcc.a(_si_to_df.o)
 .debug_loc     0x0000ac96       0x8b c:/altera/12.1/nios2eds/bin/gnu/h-i686-mingw32/bin/../lib/gcc/nios2-elf/4.1.2/mno-hw-mul\libgcc.a(_df_to_si.o)
 .debug_loc     0x0000ad21       0x5b c:/altera/12.1/nios2eds/bin/gnu/h-i686-mingw32/bin/../lib/gcc/nios2-elf/4.1.2/mno-hw-mul\libgcc.a(_usi_to_df.o)
 .debug_loc     0x0000ad7c      0x103 c:/altera/12.1/nios2eds/bin/gnu/h-i686-mingw32/bin/../lib/gcc/nios2-elf/4.1.2/mno-hw-mul\libgcc.a(_muldi3.o)
 .debug_loc     0x0000ae7f       0x1e c:/altera/12.1/nios2eds/bin/gnu/h-i686-mingw32/bin/../lib/gcc/nios2-elf/4.1.2/mno-hw-mul\libgcc.a(_clzsi2.o)
 .debug_loc     0x0000ae9d      0x184 c:/altera/12.1/nios2eds/bin/gnu/h-i686-mingw32/bin/../lib/gcc/nios2-elf/4.1.2/mno-hw-mul\libgcc.a(_pack_df.o)
 .debug_loc     0x0000b021       0xe5 c:/altera/12.1/nios2eds/bin/gnu/h-i686-mingw32/bin/../lib/gcc/nios2-elf/4.1.2/mno-hw-mul\libgcc.a(_unpack_df.o)
 .debug_loc     0x0000b106       0x56 C:/work/fpga/nios2_camera_sdram_lcd/prj_eclipse/nios2_camera_sdram_lcd_bsp/\libhal_bsp.a(alt_close.o)
 .debug_loc     0x0000b15c       0x2b C:/work/fpga/nios2_camera_sdram_lcd/prj_eclipse/nios2_camera_sdram_lcd_bsp/\libhal_bsp.a(alt_dev.o)
 .debug_loc     0x0000b187       0x56 C:/work/fpga/nios2_camera_sdram_lcd/prj_eclipse/nios2_camera_sdram_lcd_bsp/\libhal_bsp.a(alt_fstat.o)
 .debug_loc     0x0000b1dd       0xac C:/work/fpga/nios2_camera_sdram_lcd/prj_eclipse/nios2_camera_sdram_lcd_bsp/\libhal_bsp.a(alt_iic.o)
 .debug_loc     0x0000b289       0x2b C:/work/fpga/nios2_camera_sdram_lcd/prj_eclipse/nios2_camera_sdram_lcd_bsp/\libhal_bsp.a(alt_iic_isr_register.o)
 .debug_loc     0x0000b2b4       0x2b C:/work/fpga/nios2_camera_sdram_lcd/prj_eclipse/nios2_camera_sdram_lcd_bsp/\libhal_bsp.a(alt_irq_handler.o)
 .debug_loc     0x0000b2df       0x57 C:/work/fpga/nios2_camera_sdram_lcd/prj_eclipse/nios2_camera_sdram_lcd_bsp/\libhal_bsp.a(alt_isatty.o)
 .debug_loc     0x0000b336       0x56 C:/work/fpga/nios2_camera_sdram_lcd/prj_eclipse/nios2_camera_sdram_lcd_bsp/\libhal_bsp.a(alt_load.o)
 .debug_loc     0x0000b38c       0x56 C:/work/fpga/nios2_camera_sdram_lcd/prj_eclipse/nios2_camera_sdram_lcd_bsp/\libhal_bsp.a(alt_lseek.o)
 .debug_loc     0x0000b3e2       0x2b C:/work/fpga/nios2_camera_sdram_lcd/prj_eclipse/nios2_camera_sdram_lcd_bsp/\libhal_bsp.a(alt_main.o)
 .debug_loc     0x0000b40d       0x56 C:/work/fpga/nios2_camera_sdram_lcd/prj_eclipse/nios2_camera_sdram_lcd_bsp/\libhal_bsp.a(alt_malloc_lock.o)
 .debug_loc     0x0000b463       0x56 C:/work/fpga/nios2_camera_sdram_lcd/prj_eclipse/nios2_camera_sdram_lcd_bsp/\libhal_bsp.a(alt_read.o)
 .debug_loc     0x0000b4b9       0x2b C:/work/fpga/nios2_camera_sdram_lcd/prj_eclipse/nios2_camera_sdram_lcd_bsp/\libhal_bsp.a(alt_release_fd.o)
 .debug_loc     0x0000b4e4       0x2b C:/work/fpga/nios2_camera_sdram_lcd/prj_eclipse/nios2_camera_sdram_lcd_bsp/\libhal_bsp.a(alt_sbrk.o)
 .debug_loc     0x0000b50f       0x2b C:/work/fpga/nios2_camera_sdram_lcd/prj_eclipse/nios2_camera_sdram_lcd_bsp/\libhal_bsp.a(alt_usleep.o)
 .debug_loc     0x0000b53a       0x56 C:/work/fpga/nios2_camera_sdram_lcd/prj_eclipse/nios2_camera_sdram_lcd_bsp/\libhal_bsp.a(alt_write.o)
 .debug_loc     0x0000b590       0x81 C:/work/fpga/nios2_camera_sdram_lcd/prj_eclipse/nios2_camera_sdram_lcd_bsp/\libhal_bsp.a(alt_sys_init.o)
 .debug_loc     0x0000b611       0xac C:/work/fpga/nios2_camera_sdram_lcd/prj_eclipse/nios2_camera_sdram_lcd_bsp/\libhal_bsp.a(altera_avalon_jtag_uart_fd.o)
 .debug_loc     0x0000b6bd       0xac C:/work/fpga/nios2_camera_sdram_lcd/prj_eclipse/nios2_camera_sdram_lcd_bsp/\libhal_bsp.a(altera_avalon_jtag_uart_init.o)
 .debug_loc     0x0000b769       0x2b C:/work/fpga/nios2_camera_sdram_lcd/prj_eclipse/nios2_camera_sdram_lcd_bsp/\libhal_bsp.a(altera_avalon_jtag_uart_ioctl.o)
 .debug_loc     0x0000b794       0x2b C:/work/fpga/nios2_camera_sdram_lcd/prj_eclipse/nios2_camera_sdram_lcd_bsp/\libhal_bsp.a(altera_avalon_jtag_uart_read.o)
 .debug_loc     0x0000b7bf       0x2b C:/work/fpga/nios2_camera_sdram_lcd/prj_eclipse/nios2_camera_sdram_lcd_bsp/\libhal_bsp.a(altera_avalon_jtag_uart_write.o)
 .debug_loc     0x0000b7ea       0x2b C:/work/fpga/nios2_camera_sdram_lcd/prj_eclipse/nios2_camera_sdram_lcd_bsp/\libhal_bsp.a(alt_alarm_start.o)
 .debug_loc     0x0000b815       0x2b C:/work/fpga/nios2_camera_sdram_lcd/prj_eclipse/nios2_camera_sdram_lcd_bsp/\libhal_bsp.a(alt_busy_sleep.o)
 .debug_loc     0x0000b840       0x2b C:/work/fpga/nios2_camera_sdram_lcd/prj_eclipse/nios2_camera_sdram_lcd_bsp/\libhal_bsp.a(alt_dcache_flush_all.o)
 .debug_loc     0x0000b86b       0x56 C:/work/fpga/nios2_camera_sdram_lcd/prj_eclipse/nios2_camera_sdram_lcd_bsp/\libhal_bsp.a(alt_dev_llist_insert.o)
 .debug_loc     0x0000b8c1       0x2b C:/work/fpga/nios2_camera_sdram_lcd/prj_eclipse/nios2_camera_sdram_lcd_bsp/\libhal_bsp.a(alt_do_ctors.o)
 .debug_loc     0x0000b8ec       0x2b C:/work/fpga/nios2_camera_sdram_lcd/prj_eclipse/nios2_camera_sdram_lcd_bsp/\libhal_bsp.a(alt_do_dtors.o)
 .debug_loc     0x0000b917       0x2b C:/work/fpga/nios2_camera_sdram_lcd/prj_eclipse/nios2_camera_sdram_lcd_bsp/\libhal_bsp.a(alt_icache_flush_all.o)
 .debug_loc     0x0000b942       0x56 C:/work/fpga/nios2_camera_sdram_lcd/prj_eclipse/nios2_camera_sdram_lcd_bsp/\libhal_bsp.a(alt_io_redirect.o)
 .debug_loc     0x0000b998       0x81 C:/work/fpga/nios2_camera_sdram_lcd/prj_eclipse/nios2_camera_sdram_lcd_bsp/\libhal_bsp.a(alt_open.o)
 .debug_loc     0x0000ba19       0x56 C:/work/fpga/nios2_camera_sdram_lcd/prj_eclipse/nios2_camera_sdram_lcd_bsp/\libhal_bsp.a(alt_tick.o)
 .debug_loc     0x0000ba6f       0x2b C:/work/fpga/nios2_camera_sdram_lcd/prj_eclipse/nios2_camera_sdram_lcd_bsp/\libhal_bsp.a(altera_nios2_qsys_irq.o)
 .debug_loc     0x0000ba9a       0x2b C:/work/fpga/nios2_camera_sdram_lcd/prj_eclipse/nios2_camera_sdram_lcd_bsp/\libhal_bsp.a(alt_find_dev.o)
 .debug_loc     0x0000bac5       0x2b C:/work/fpga/nios2_camera_sdram_lcd/prj_eclipse/nios2_camera_sdram_lcd_bsp/\libhal_bsp.a(alt_find_file.o)
 .debug_loc     0x0000baf0       0x2b C:/work/fpga/nios2_camera_sdram_lcd/prj_eclipse/nios2_camera_sdram_lcd_bsp/\libhal_bsp.a(alt_get_fd.o)
 .debug_loc     0x0000bb1b       0x1e c:/altera/12.1/nios2eds/bin/gnu/h-i686-mingw32/bin/../lib/gcc/nios2-elf/4.1.2/../../../../nios2-elf/lib/mno-hw-mul\libc.a(lib_a-atexit.o)
 .debug_loc     0x0000bb39       0x3d c:/altera/12.1/nios2eds/bin/gnu/h-i686-mingw32/bin/../lib/gcc/nios2-elf/4.1.2/../../../../nios2-elf/lib/mno-hw-mul\libc.a(lib_a-exit.o)
 .debug_loc     0x0000bb76      0x114 c:/altera/12.1/nios2eds/bin/gnu/h-i686-mingw32/bin/../lib/gcc/nios2-elf/4.1.2/../../../../nios2-elf/lib/mno-hw-mul\libc.a(lib_a-memcmp.o)
 .debug_loc     0x0000bc8a      0x120 c:/altera/12.1/nios2eds/bin/gnu/h-i686-mingw32/bin/../lib/gcc/nios2-elf/4.1.2/../../../../nios2-elf/lib/mno-hw-mul\libc.a(lib_a-__atexit.o)
 .debug_loc     0x0000bdaa      0x1cb c:/altera/12.1/nios2eds/bin/gnu/h-i686-mingw32/bin/../lib/gcc/nios2-elf/4.1.2/../../../../nios2-elf/lib/mno-hw-mul\libc.a(lib_a-__call_atexit.o)
 .debug_loc     0x0000bf75       0x56 C:/work/fpga/nios2_camera_sdram_lcd/prj_eclipse/nios2_camera_sdram_lcd_bsp/\libhal_bsp.a(alt_exit.o)

.debug_macinfo
 *(.debug_macinfo)

.debug_weaknames
 *(.debug_weaknames)

.debug_funcnames
 *(.debug_funcnames)

.debug_typenames
 *(.debug_typenames)

.debug_varnames
 *(.debug_varnames)

.debug_alt_sim_info
                0x00000000       0x40
 *(.debug_alt_sim_info)
 .debug_alt_sim_info
                0x00000000       0x10 C:/work/fpga/nios2_camera_sdram_lcd/prj_eclipse/nios2_camera_sdram_lcd_bsp//obj/HAL/src/crt0.o
 .debug_alt_sim_info
                0x00000010       0x30 C:/work/fpga/nios2_camera_sdram_lcd/prj_eclipse/nios2_camera_sdram_lcd_bsp/\libhal_bsp.a(alt_busy_sleep.o)
                0x02000000                __alt_data_end = 0x2000000
                0x02000000                PROVIDE (__alt_stack_pointer, __alt_data_end)
                0x000914e4                PROVIDE (__alt_stack_limit, __alt_stack_base)
                0x000914e4                PROVIDE (__alt_heap_start, end)
                0x02000000                PROVIDE (__alt_heap_limit, 0x2000000)
OUTPUT(nios2_camera_sdram_lcd.elf elf32-littlenios2)

.debug_ranges   0x00000000      0x9e0
 .debug_ranges  0x00000000       0x20 C:/work/fpga/nios2_camera_sdram_lcd/prj_eclipse/nios2_camera_sdram_lcd_bsp//obj/HAL/src/crt0.o
 .debug_ranges  0x00000020      0x168 c:/altera/12.1/nios2eds/bin/gnu/h-i686-mingw32/bin/../lib/gcc/nios2-elf/4.1.2/../../../../nios2-elf/lib/mno-hw-mul\libc.a(lib_a-vfprintf.o)
 .debug_ranges  0x00000188       0x20 c:/altera/12.1/nios2eds/bin/gnu/h-i686-mingw32/bin/../lib/gcc/nios2-elf/4.1.2/../../../../nios2-elf/lib/mno-hw-mul\libc.a(lib_a-fflush.o)
 .debug_ranges  0x000001a8       0x28 c:/altera/12.1/nios2eds/bin/gnu/h-i686-mingw32/bin/../lib/gcc/nios2-elf/4.1.2/../../../../nios2-elf/lib/mno-hw-mul\libc.a(lib_a-fvwrite.o)
 .debug_ranges  0x000001d0       0xa0 c:/altera/12.1/nios2eds/bin/gnu/h-i686-mingw32/bin/../lib/gcc/nios2-elf/4.1.2/../../../../nios2-elf/lib/mno-hw-mul\libc.a(lib_a-fwalk.o)
 .debug_ranges  0x00000270       0x70 c:/altera/12.1/nios2eds/bin/gnu/h-i686-mingw32/bin/../lib/gcc/nios2-elf/4.1.2/../../../../nios2-elf/lib/mno-hw-mul\libc.a(lib_a-mallocr.o)
 .debug_ranges  0x000002e0      0x110 c:/altera/12.1/nios2eds/bin/gnu/h-i686-mingw32/bin/../lib/gcc/nios2-elf/4.1.2/../../../../nios2-elf/lib/mno-hw-mul\libc.a(lib_a-reallocr.o)
 .debug_ranges  0x000003f0       0x38 c:/altera/12.1/nios2eds/bin/gnu/h-i686-mingw32/bin/../lib/gcc/nios2-elf/4.1.2/../../../../nios2-elf/lib/mno-hw-mul\libc.a(lib_a-callocr.o)
 .debug_ranges  0x00000428      0x190 c:/altera/12.1/nios2eds/bin/gnu/h-i686-mingw32/bin/../lib/gcc/nios2-elf/4.1.2/mno-hw-mul\libgcc.a(_udivdi3.o)
 .debug_ranges  0x000005b8      0x1c0 c:/altera/12.1/nios2eds/bin/gnu/h-i686-mingw32/bin/../lib/gcc/nios2-elf/4.1.2/mno-hw-mul\libgcc.a(_umoddi3.o)
 .debug_ranges  0x00000778       0x30 c:/altera/12.1/nios2eds/bin/gnu/h-i686-mingw32/bin/../lib/gcc/nios2-elf/4.1.2/mno-hw-mul\libgcc.a(_addsub_df.o)
 .debug_ranges  0x000007a8       0x88 c:/altera/12.1/nios2eds/bin/gnu/h-i686-mingw32/bin/../lib/gcc/nios2-elf/4.1.2/mno-hw-mul\libgcc.a(_mul_df.o)
 .debug_ranges  0x00000830       0x50 c:/altera/12.1/nios2eds/bin/gnu/h-i686-mingw32/bin/../lib/gcc/nios2-elf/4.1.2/mno-hw-mul\libgcc.a(_div_df.o)
 .debug_ranges  0x00000880       0x18 c:/altera/12.1/nios2eds/bin/gnu/h-i686-mingw32/bin/../lib/gcc/nios2-elf/4.1.2/mno-hw-mul\libgcc.a(_usi_to_df.o)
 .debug_ranges  0x00000898       0x88 c:/altera/12.1/nios2eds/bin/gnu/h-i686-mingw32/bin/../lib/gcc/nios2-elf/4.1.2/mno-hw-mul\libgcc.a(_muldi3.o)
 .debug_ranges  0x00000920       0x28 c:/altera/12.1/nios2eds/bin/gnu/h-i686-mingw32/bin/../lib/gcc/nios2-elf/4.1.2/mno-hw-mul\libgcc.a(_clzsi2.o)
 .debug_ranges  0x00000948       0x28 c:/altera/12.1/nios2eds/bin/gnu/h-i686-mingw32/bin/../lib/gcc/nios2-elf/4.1.2/mno-hw-mul\libgcc.a(_pack_df.o)
 .debug_ranges  0x00000970       0x28 C:/work/fpga/nios2_camera_sdram_lcd/prj_eclipse/nios2_camera_sdram_lcd_bsp/\libhal_bsp.a(alt_irq_entry.o)
 .debug_ranges  0x00000998       0x30 C:/work/fpga/nios2_camera_sdram_lcd/prj_eclipse/nios2_camera_sdram_lcd_bsp/\libhal_bsp.a(alt_exception_entry.o)
 .debug_ranges  0x000009c8       0x18 c:/altera/12.1/nios2eds/bin/gnu/h-i686-mingw32/bin/../lib/gcc/nios2-elf/4.1.2/../../../../nios2-elf/lib/mno-hw-mul\libc.a(lib_a-__call_atexit.o)
